

Microchip MPLAB XC8 Assembler V2.40 build 20220703182018 
                                                                                               Fri Oct 07 20:23:29 2022

Microchip MPLAB XC8 C Compiler v2.40 (Free license) build 20220703182018 Og1 
     1                           	processor	16F1827
     2                           	pagewidth 120
     3                           	opt	flic
     4                           	psect	idataBANK0,global,class=CODE,delta=2,noexec
     5                           	psect	stringtext1,global,class=STRCODE,delta=2,noexec
     6                           	psect	stringtext2,global,class=STRCODE,delta=2,noexec
     7                           	psect	stringtext3,global,class=STRCODE,delta=2,noexec
     8                           	psect	nvBANK1,global,class=BANK1,space=1,delta=1,noexec
     9                           	psect	cinit,global,class=CODE,merge=1,delta=2
    10                           	psect	bssBANK0,global,class=BANK0,space=1,delta=1,noexec
    11                           	psect	dataBANK0,global,class=BANK0,space=1,delta=1,noexec
    12                           	psect	bssBANK1,global,class=BANK1,space=1,delta=1,noexec
    13                           	psect	bssBANK2,global,class=BANK2,space=1,delta=1,noexec
    14                           	psect	inittext,global,class=CODE,delta=2
    15                           	psect	clrtext,global,class=CODE,delta=2
    16                           	psect	cstackCOMMON,global,class=COMMON,space=1,delta=1,noexec
    17                           	psect	cstackBANK0,global,class=BANK0,space=1,delta=1,noexec
    18                           	psect	maintext,global,class=CODE,merge=1,split=1,delta=2
    19                           	psect	text1,local,class=CODE,merge=1,delta=2
    20                           	psect	text2,local,class=CODE,merge=1,delta=2
    21                           	psect	text3,local,class=CODE,merge=1,delta=2,group=2
    22                           	psect	text4,local,class=CODE,merge=1,delta=2,group=1
    23                           	psect	text5,local,class=CODE,merge=1,delta=2
    24                           	psect	text6,local,class=CODE,merge=1,delta=2
    25                           	psect	text7,local,class=CODE,merge=1,delta=2
    26                           	psect	text8,local,class=CODE,merge=1,delta=2
    27                           	psect	text9,local,class=CODE,merge=1,delta=2
    28                           	psect	text10,local,class=CODE,merge=1,delta=2
    29                           	psect	text11,local,class=CODE,merge=1,delta=2
    30                           	psect	text12,local,class=CODE,merge=1,delta=2
    31                           	psect	text13,local,class=CODE,merge=1,delta=2
    32                           	psect	text14,local,class=CODE,merge=1,delta=2
    33                           	psect	text15,local,class=CODE,merge=1,delta=2
    34                           	psect	text16,local,class=CODE,merge=1,delta=2
    35                           	psect	text17,local,class=CODE,merge=1,delta=2
    36                           	psect	text18,local,class=CODE,merge=1,delta=2
    37                           	psect	text19,local,class=CODE,merge=1,delta=2
    38                           	psect	text20,local,class=CODE,merge=1,delta=2
    39                           	psect	text21,local,class=CODE,merge=1,delta=2
    40                           	psect	text22,local,class=CODE,merge=1,delta=2
    41                           	psect	idloc,global,abs,ovrld,class=IDLOC,space=5,delta=2,noexec
    42                           	psect	config,global,abs,ovrld,class=CONFIG,space=4,delta=2,noexec
    43                           	dabs	1,0x7E,2
    44     0000                     
    45                           ; Version 2.40
    46                           ; Generated 17/11/2021 GMT
    47                           ; 
    48                           ; Copyright © 2021, Microchip Technology Inc. and its subsidiaries ("Microchip")
    49                           ; All rights reserved.
    50                           ; 
    51                           ; This software is developed by Microchip Technology Inc. and its subsidiaries ("Microch
      +                          ip").
    52                           ; 
    53                           ; Redistribution and use in source and binary forms, with or without modification, are
    54                           ; permitted provided that the following conditions are met:
    55                           ; 
    56                           ;     1. Redistributions of source code must retain the above copyright notice, this lis
      +                          t of
    57                           ;        conditions and the following disclaimer.
    58                           ; 
    59                           ;     2. Redistributions in binary form must reproduce the above copyright notice, this 
      +                          list
    60                           ;        of conditions and the following disclaimer in the documentation and/or other
    61                           ;        materials provided with the distribution. Publication is not required when
    62                           ;        this file is used in an embedded application.
    63                           ; 
    64                           ;     3. Microchip's name may not be used to endorse or promote products derived from th
      +                          is
    65                           ;        software without specific prior written permission.
    66                           ; 
    67                           ; THIS SOFTWARE IS PROVIDED BY MICROCHIP "AS IS" AND ANY EXPRESS OR IMPLIED WARRANTIES,
    68                           ; INCLUDING, BUT NOT LIMITED TO, THE IMPLIED WARRANTIES OF MERCHANTABILITY AND FITNESS F
      +                          OR
    69                           ; PURPOSE ARE DISCLAIMED.  IN NO EVENT SHALL MICROCHIP BE LIABLE FOR ANY DIRECT, INDIREC
      +                          T,
    70                           ; INCIDENTAL, SPECIAL, EXEMPLARY, OR CONSEQUENTIAL DAMAGES (INCLUDING BUT NOT LIMITED TO
    71                           ; PROCUREMENT OF SUBSTITUTE GOODS OR SERVICES; LOSS OF USE, DATA OR PROFITS; OR BUSINESS
    72                           ; INTERRUPTION) HOWSOEVER CAUSED AND ON ANY THEORY OF LIABILITY, WHETHER IN CONTRACT, ST
      +                          RICT
    73                           ; LIABILITY, OR TORT (INCLUDING NEGLIGENCE OR OTHERWISE) ARISING IN ANY WAY OUT OF THE U
      +                          SE OF
    74                           ; THIS SOFTWARE, EVEN IF ADVISED OF THE POSSIBILITY OF SUCH DAMAGE.
    75                           ; 
    76                           ; 
    77                           ; Code-generator required, PIC16F1827 Definitions
    78                           ; 
    79                           ; SFR Addresses
    80     0000                     	;# 
    81     0001                     	;# 
    82     0002                     	;# 
    83     0003                     	;# 
    84     0004                     	;# 
    85     0005                     	;# 
    86     0006                     	;# 
    87     0007                     	;# 
    88     0008                     	;# 
    89     0009                     	;# 
    90     000A                     	;# 
    91     000B                     	;# 
    92     000C                     	;# 
    93     000D                     	;# 
    94     0011                     	;# 
    95     0012                     	;# 
    96     0013                     	;# 
    97     0014                     	;# 
    98     0015                     	;# 
    99     0016                     	;# 
   100     0016                     	;# 
   101     0017                     	;# 
   102     0018                     	;# 
   103     0019                     	;# 
   104     001A                     	;# 
   105     001B                     	;# 
   106     001C                     	;# 
   107     001E                     	;# 
   108     001F                     	;# 
   109     008C                     	;# 
   110     008D                     	;# 
   111     0091                     	;# 
   112     0092                     	;# 
   113     0093                     	;# 
   114     0094                     	;# 
   115     0095                     	;# 
   116     0096                     	;# 
   117     0097                     	;# 
   118     0098                     	;# 
   119     0099                     	;# 
   120     009A                     	;# 
   121     009B                     	;# 
   122     009B                     	;# 
   123     009C                     	;# 
   124     009D                     	;# 
   125     009E                     	;# 
   126     010C                     	;# 
   127     010D                     	;# 
   128     0111                     	;# 
   129     0112                     	;# 
   130     0113                     	;# 
   131     0114                     	;# 
   132     0115                     	;# 
   133     0116                     	;# 
   134     0117                     	;# 
   135     0118                     	;# 
   136     0119                     	;# 
   137     011A                     	;# 
   138     011B                     	;# 
   139     011D                     	;# 
   140     011E                     	;# 
   141     018C                     	;# 
   142     018D                     	;# 
   143     0191                     	;# 
   144     0191                     	;# 
   145     0192                     	;# 
   146     0193                     	;# 
   147     0193                     	;# 
   148     0193                     	;# 
   149     0194                     	;# 
   150     0195                     	;# 
   151     0196                     	;# 
   152     0199                     	;# 
   153     019A                     	;# 
   154     019B                     	;# 
   155     019B                     	;# 
   156     019B                     	;# 
   157     019B                     	;# 
   158     019C                     	;# 
   159     019C                     	;# 
   160     019D                     	;# 
   161     019E                     	;# 
   162     019F                     	;# 
   163     020C                     	;# 
   164     020D                     	;# 
   165     0211                     	;# 
   166     0211                     	;# 
   167     0212                     	;# 
   168     0212                     	;# 
   169     0213                     	;# 
   170     0213                     	;# 
   171     0214                     	;# 
   172     0214                     	;# 
   173     0215                     	;# 
   174     0215                     	;# 
   175     0215                     	;# 
   176     0216                     	;# 
   177     0216                     	;# 
   178     0217                     	;# 
   179     0217                     	;# 
   180     0219                     	;# 
   181     021A                     	;# 
   182     021B                     	;# 
   183     021C                     	;# 
   184     021D                     	;# 
   185     021E                     	;# 
   186     021F                     	;# 
   187     0291                     	;# 
   188     0291                     	;# 
   189     0292                     	;# 
   190     0293                     	;# 
   191     0294                     	;# 
   192     0295                     	;# 
   193     0295                     	;# 
   194     0296                     	;# 
   195     0298                     	;# 
   196     0298                     	;# 
   197     0299                     	;# 
   198     029A                     	;# 
   199     029B                     	;# 
   200     029C                     	;# 
   201     029C                     	;# 
   202     029D                     	;# 
   203     029E                     	;# 
   204     029E                     	;# 
   205     0311                     	;# 
   206     0311                     	;# 
   207     0312                     	;# 
   208     0313                     	;# 
   209     0318                     	;# 
   210     0318                     	;# 
   211     0319                     	;# 
   212     031A                     	;# 
   213     0394                     	;# 
   214     0395                     	;# 
   215     0396                     	;# 
   216     039A                     	;# 
   217     039C                     	;# 
   218     039D                     	;# 
   219     039E                     	;# 
   220     039F                     	;# 
   221     0415                     	;# 
   222     0416                     	;# 
   223     0417                     	;# 
   224     041C                     	;# 
   225     041D                     	;# 
   226     041E                     	;# 
   227     0FE4                     	;# 
   228     0FE5                     	;# 
   229     0FE6                     	;# 
   230     0FE7                     	;# 
   231     0FE8                     	;# 
   232     0FE9                     	;# 
   233     0FEA                     	;# 
   234     0FEB                     	;# 
   235     0FED                     	;# 
   236     0FEE                     	;# 
   237     0FEF                     	;# 
   238     0000                     	;# 
   239     0001                     	;# 
   240     0002                     	;# 
   241     0003                     	;# 
   242     0004                     	;# 
   243     0005                     	;# 
   244     0006                     	;# 
   245     0007                     	;# 
   246     0008                     	;# 
   247     0009                     	;# 
   248     000A                     	;# 
   249     000B                     	;# 
   250     000C                     	;# 
   251     000D                     	;# 
   252     0011                     	;# 
   253     0012                     	;# 
   254     0013                     	;# 
   255     0014                     	;# 
   256     0015                     	;# 
   257     0016                     	;# 
   258     0016                     	;# 
   259     0017                     	;# 
   260     0018                     	;# 
   261     0019                     	;# 
   262     001A                     	;# 
   263     001B                     	;# 
   264     001C                     	;# 
   265     001E                     	;# 
   266     001F                     	;# 
   267     008C                     	;# 
   268     008D                     	;# 
   269     0091                     	;# 
   270     0092                     	;# 
   271     0093                     	;# 
   272     0094                     	;# 
   273     0095                     	;# 
   274     0096                     	;# 
   275     0097                     	;# 
   276     0098                     	;# 
   277     0099                     	;# 
   278     009A                     	;# 
   279     009B                     	;# 
   280     009B                     	;# 
   281     009C                     	;# 
   282     009D                     	;# 
   283     009E                     	;# 
   284     010C                     	;# 
   285     010D                     	;# 
   286     0111                     	;# 
   287     0112                     	;# 
   288     0113                     	;# 
   289     0114                     	;# 
   290     0115                     	;# 
   291     0116                     	;# 
   292     0117                     	;# 
   293     0118                     	;# 
   294     0119                     	;# 
   295     011A                     	;# 
   296     011B                     	;# 
   297     011D                     	;# 
   298     011E                     	;# 
   299     018C                     	;# 
   300     018D                     	;# 
   301     0191                     	;# 
   302     0191                     	;# 
   303     0192                     	;# 
   304     0193                     	;# 
   305     0193                     	;# 
   306     0193                     	;# 
   307     0194                     	;# 
   308     0195                     	;# 
   309     0196                     	;# 
   310     0199                     	;# 
   311     019A                     	;# 
   312     019B                     	;# 
   313     019B                     	;# 
   314     019B                     	;# 
   315     019B                     	;# 
   316     019C                     	;# 
   317     019C                     	;# 
   318     019D                     	;# 
   319     019E                     	;# 
   320     019F                     	;# 
   321     020C                     	;# 
   322     020D                     	;# 
   323     0211                     	;# 
   324     0211                     	;# 
   325     0212                     	;# 
   326     0212                     	;# 
   327     0213                     	;# 
   328     0213                     	;# 
   329     0214                     	;# 
   330     0214                     	;# 
   331     0215                     	;# 
   332     0215                     	;# 
   333     0215                     	;# 
   334     0216                     	;# 
   335     0216                     	;# 
   336     0217                     	;# 
   337     0217                     	;# 
   338     0219                     	;# 
   339     021A                     	;# 
   340     021B                     	;# 
   341     021C                     	;# 
   342     021D                     	;# 
   343     021E                     	;# 
   344     021F                     	;# 
   345     0291                     	;# 
   346     0291                     	;# 
   347     0292                     	;# 
   348     0293                     	;# 
   349     0294                     	;# 
   350     0295                     	;# 
   351     0295                     	;# 
   352     0296                     	;# 
   353     0298                     	;# 
   354     0298                     	;# 
   355     0299                     	;# 
   356     029A                     	;# 
   357     029B                     	;# 
   358     029C                     	;# 
   359     029C                     	;# 
   360     029D                     	;# 
   361     029E                     	;# 
   362     029E                     	;# 
   363     0311                     	;# 
   364     0311                     	;# 
   365     0312                     	;# 
   366     0313                     	;# 
   367     0318                     	;# 
   368     0318                     	;# 
   369     0319                     	;# 
   370     031A                     	;# 
   371     0394                     	;# 
   372     0395                     	;# 
   373     0396                     	;# 
   374     039A                     	;# 
   375     039C                     	;# 
   376     039D                     	;# 
   377     039E                     	;# 
   378     039F                     	;# 
   379     0415                     	;# 
   380     0416                     	;# 
   381     0417                     	;# 
   382     041C                     	;# 
   383     041D                     	;# 
   384     041E                     	;# 
   385     0FE4                     	;# 
   386     0FE5                     	;# 
   387     0FE6                     	;# 
   388     0FE7                     	;# 
   389     0FE8                     	;# 
   390     0FE9                     	;# 
   391     0FEA                     	;# 
   392     0FEB                     	;# 
   393     0FED                     	;# 
   394     0FEE                     	;# 
   395     0FEF                     	;# 
   396     0000                     	;# 
   397     0001                     	;# 
   398     0002                     	;# 
   399     0003                     	;# 
   400     0004                     	;# 
   401     0005                     	;# 
   402     0006                     	;# 
   403     0007                     	;# 
   404     0008                     	;# 
   405     0009                     	;# 
   406     000A                     	;# 
   407     000B                     	;# 
   408     000C                     	;# 
   409     000D                     	;# 
   410     0011                     	;# 
   411     0012                     	;# 
   412     0013                     	;# 
   413     0014                     	;# 
   414     0015                     	;# 
   415     0016                     	;# 
   416     0016                     	;# 
   417     0017                     	;# 
   418     0018                     	;# 
   419     0019                     	;# 
   420     001A                     	;# 
   421     001B                     	;# 
   422     001C                     	;# 
   423     001E                     	;# 
   424     001F                     	;# 
   425     008C                     	;# 
   426     008D                     	;# 
   427     0091                     	;# 
   428     0092                     	;# 
   429     0093                     	;# 
   430     0094                     	;# 
   431     0095                     	;# 
   432     0096                     	;# 
   433     0097                     	;# 
   434     0098                     	;# 
   435     0099                     	;# 
   436     009A                     	;# 
   437     009B                     	;# 
   438     009B                     	;# 
   439     009C                     	;# 
   440     009D                     	;# 
   441     009E                     	;# 
   442     010C                     	;# 
   443     010D                     	;# 
   444     0111                     	;# 
   445     0112                     	;# 
   446     0113                     	;# 
   447     0114                     	;# 
   448     0115                     	;# 
   449     0116                     	;# 
   450     0117                     	;# 
   451     0118                     	;# 
   452     0119                     	;# 
   453     011A                     	;# 
   454     011B                     	;# 
   455     011D                     	;# 
   456     011E                     	;# 
   457     018C                     	;# 
   458     018D                     	;# 
   459     0191                     	;# 
   460     0191                     	;# 
   461     0192                     	;# 
   462     0193                     	;# 
   463     0193                     	;# 
   464     0193                     	;# 
   465     0194                     	;# 
   466     0195                     	;# 
   467     0196                     	;# 
   468     0199                     	;# 
   469     019A                     	;# 
   470     019B                     	;# 
   471     019B                     	;# 
   472     019B                     	;# 
   473     019B                     	;# 
   474     019C                     	;# 
   475     019C                     	;# 
   476     019D                     	;# 
   477     019E                     	;# 
   478     019F                     	;# 
   479     020C                     	;# 
   480     020D                     	;# 
   481     0211                     	;# 
   482     0211                     	;# 
   483     0212                     	;# 
   484     0212                     	;# 
   485     0213                     	;# 
   486     0213                     	;# 
   487     0214                     	;# 
   488     0214                     	;# 
   489     0215                     	;# 
   490     0215                     	;# 
   491     0215                     	;# 
   492     0216                     	;# 
   493     0216                     	;# 
   494     0217                     	;# 
   495     0217                     	;# 
   496     0219                     	;# 
   497     021A                     	;# 
   498     021B                     	;# 
   499     021C                     	;# 
   500     021D                     	;# 
   501     021E                     	;# 
   502     021F                     	;# 
   503     0291                     	;# 
   504     0291                     	;# 
   505     0292                     	;# 
   506     0293                     	;# 
   507     0294                     	;# 
   508     0295                     	;# 
   509     0295                     	;# 
   510     0296                     	;# 
   511     0298                     	;# 
   512     0298                     	;# 
   513     0299                     	;# 
   514     029A                     	;# 
   515     029B                     	;# 
   516     029C                     	;# 
   517     029C                     	;# 
   518     029D                     	;# 
   519     029E                     	;# 
   520     029E                     	;# 
   521     0311                     	;# 
   522     0311                     	;# 
   523     0312                     	;# 
   524     0313                     	;# 
   525     0318                     	;# 
   526     0318                     	;# 
   527     0319                     	;# 
   528     031A                     	;# 
   529     0394                     	;# 
   530     0395                     	;# 
   531     0396                     	;# 
   532     039A                     	;# 
   533     039C                     	;# 
   534     039D                     	;# 
   535     039E                     	;# 
   536     039F                     	;# 
   537     0415                     	;# 
   538     0416                     	;# 
   539     0417                     	;# 
   540     041C                     	;# 
   541     041D                     	;# 
   542     041E                     	;# 
   543     0FE4                     	;# 
   544     0FE5                     	;# 
   545     0FE6                     	;# 
   546     0FE7                     	;# 
   547     0FE8                     	;# 
   548     0FE9                     	;# 
   549     0FEA                     	;# 
   550     0FEB                     	;# 
   551     0FED                     	;# 
   552     0FEE                     	;# 
   553     0FEF                     	;# 
   554     0000                     	;# 
   555     0001                     	;# 
   556     0002                     	;# 
   557     0003                     	;# 
   558     0004                     	;# 
   559     0005                     	;# 
   560     0006                     	;# 
   561     0007                     	;# 
   562     0008                     	;# 
   563     0009                     	;# 
   564     000A                     	;# 
   565     000B                     	;# 
   566     000C                     	;# 
   567     000D                     	;# 
   568     0011                     	;# 
   569     0012                     	;# 
   570     0013                     	;# 
   571     0014                     	;# 
   572     0015                     	;# 
   573     0016                     	;# 
   574     0016                     	;# 
   575     0017                     	;# 
   576     0018                     	;# 
   577     0019                     	;# 
   578     001A                     	;# 
   579     001B                     	;# 
   580     001C                     	;# 
   581     001E                     	;# 
   582     001F                     	;# 
   583     008C                     	;# 
   584     008D                     	;# 
   585     0091                     	;# 
   586     0092                     	;# 
   587     0093                     	;# 
   588     0094                     	;# 
   589     0095                     	;# 
   590     0096                     	;# 
   591     0097                     	;# 
   592     0098                     	;# 
   593     0099                     	;# 
   594     009A                     	;# 
   595     009B                     	;# 
   596     009B                     	;# 
   597     009C                     	;# 
   598     009D                     	;# 
   599     009E                     	;# 
   600     010C                     	;# 
   601     010D                     	;# 
   602     0111                     	;# 
   603     0112                     	;# 
   604     0113                     	;# 
   605     0114                     	;# 
   606     0115                     	;# 
   607     0116                     	;# 
   608     0117                     	;# 
   609     0118                     	;# 
   610     0119                     	;# 
   611     011A                     	;# 
   612     011B                     	;# 
   613     011D                     	;# 
   614     011E                     	;# 
   615     018C                     	;# 
   616     018D                     	;# 
   617     0191                     	;# 
   618     0191                     	;# 
   619     0192                     	;# 
   620     0193                     	;# 
   621     0193                     	;# 
   622     0193                     	;# 
   623     0194                     	;# 
   624     0195                     	;# 
   625     0196                     	;# 
   626     0199                     	;# 
   627     019A                     	;# 
   628     019B                     	;# 
   629     019B                     	;# 
   630     019B                     	;# 
   631     019B                     	;# 
   632     019C                     	;# 
   633     019C                     	;# 
   634     019D                     	;# 
   635     019E                     	;# 
   636     019F                     	;# 
   637     020C                     	;# 
   638     020D                     	;# 
   639     0211                     	;# 
   640     0211                     	;# 
   641     0212                     	;# 
   642     0212                     	;# 
   643     0213                     	;# 
   644     0213                     	;# 
   645     0214                     	;# 
   646     0214                     	;# 
   647     0215                     	;# 
   648     0215                     	;# 
   649     0215                     	;# 
   650     0216                     	;# 
   651     0216                     	;# 
   652     0217                     	;# 
   653     0217                     	;# 
   654     0219                     	;# 
   655     021A                     	;# 
   656     021B                     	;# 
   657     021C                     	;# 
   658     021D                     	;# 
   659     021E                     	;# 
   660     021F                     	;# 
   661     0291                     	;# 
   662     0291                     	;# 
   663     0292                     	;# 
   664     0293                     	;# 
   665     0294                     	;# 
   666     0295                     	;# 
   667     0295                     	;# 
   668     0296                     	;# 
   669     0298                     	;# 
   670     0298                     	;# 
   671     0299                     	;# 
   672     029A                     	;# 
   673     029B                     	;# 
   674     029C                     	;# 
   675     029C                     	;# 
   676     029D                     	;# 
   677     029E                     	;# 
   678     029E                     	;# 
   679     0311                     	;# 
   680     0311                     	;# 
   681     0312                     	;# 
   682     0313                     	;# 
   683     0318                     	;# 
   684     0318                     	;# 
   685     0319                     	;# 
   686     031A                     	;# 
   687     0394                     	;# 
   688     0395                     	;# 
   689     0396                     	;# 
   690     039A                     	;# 
   691     039C                     	;# 
   692     039D                     	;# 
   693     039E                     	;# 
   694     039F                     	;# 
   695     0415                     	;# 
   696     0416                     	;# 
   697     0417                     	;# 
   698     041C                     	;# 
   699     041D                     	;# 
   700     041E                     	;# 
   701     0FE4                     	;# 
   702     0FE5                     	;# 
   703     0FE6                     	;# 
   704     0FE7                     	;# 
   705     0FE8                     	;# 
   706     0FE9                     	;# 
   707     0FEA                     	;# 
   708     0FEB                     	;# 
   709     0FED                     	;# 
   710     0FEE                     	;# 
   711     0FEF                     	;# 
   712     0000                     	;# 
   713     0001                     	;# 
   714     0002                     	;# 
   715     0003                     	;# 
   716     0004                     	;# 
   717     0005                     	;# 
   718     0006                     	;# 
   719     0007                     	;# 
   720     0008                     	;# 
   721     0009                     	;# 
   722     000A                     	;# 
   723     000B                     	;# 
   724     000C                     	;# 
   725     000D                     	;# 
   726     0011                     	;# 
   727     0012                     	;# 
   728     0013                     	;# 
   729     0014                     	;# 
   730     0015                     	;# 
   731     0016                     	;# 
   732     0016                     	;# 
   733     0017                     	;# 
   734     0018                     	;# 
   735     0019                     	;# 
   736     001A                     	;# 
   737     001B                     	;# 
   738     001C                     	;# 
   739     001E                     	;# 
   740     001F                     	;# 
   741     008C                     	;# 
   742     008D                     	;# 
   743     0091                     	;# 
   744     0092                     	;# 
   745     0093                     	;# 
   746     0094                     	;# 
   747     0095                     	;# 
   748     0096                     	;# 
   749     0097                     	;# 
   750     0098                     	;# 
   751     0099                     	;# 
   752     009A                     	;# 
   753     009B                     	;# 
   754     009B                     	;# 
   755     009C                     	;# 
   756     009D                     	;# 
   757     009E                     	;# 
   758     010C                     	;# 
   759     010D                     	;# 
   760     0111                     	;# 
   761     0112                     	;# 
   762     0113                     	;# 
   763     0114                     	;# 
   764     0115                     	;# 
   765     0116                     	;# 
   766     0117                     	;# 
   767     0118                     	;# 
   768     0119                     	;# 
   769     011A                     	;# 
   770     011B                     	;# 
   771     011D                     	;# 
   772     011E                     	;# 
   773     018C                     	;# 
   774     018D                     	;# 
   775     0191                     	;# 
   776     0191                     	;# 
   777     0192                     	;# 
   778     0193                     	;# 
   779     0193                     	;# 
   780     0193                     	;# 
   781     0194                     	;# 
   782     0195                     	;# 
   783     0196                     	;# 
   784     0199                     	;# 
   785     019A                     	;# 
   786     019B                     	;# 
   787     019B                     	;# 
   788     019B                     	;# 
   789     019B                     	;# 
   790     019C                     	;# 
   791     019C                     	;# 
   792     019D                     	;# 
   793     019E                     	;# 
   794     019F                     	;# 
   795     020C                     	;# 
   796     020D                     	;# 
   797     0211                     	;# 
   798     0211                     	;# 
   799     0212                     	;# 
   800     0212                     	;# 
   801     0213                     	;# 
   802     0213                     	;# 
   803     0214                     	;# 
   804     0214                     	;# 
   805     0215                     	;# 
   806     0215                     	;# 
   807     0215                     	;# 
   808     0216                     	;# 
   809     0216                     	;# 
   810     0217                     	;# 
   811     0217                     	;# 
   812     0219                     	;# 
   813     021A                     	;# 
   814     021B                     	;# 
   815     021C                     	;# 
   816     021D                     	;# 
   817     021E                     	;# 
   818     021F                     	;# 
   819     0291                     	;# 
   820     0291                     	;# 
   821     0292                     	;# 
   822     0293                     	;# 
   823     0294                     	;# 
   824     0295                     	;# 
   825     0295                     	;# 
   826     0296                     	;# 
   827     0298                     	;# 
   828     0298                     	;# 
   829     0299                     	;# 
   830     029A                     	;# 
   831     029B                     	;# 
   832     029C                     	;# 
   833     029C                     	;# 
   834     029D                     	;# 
   835     029E                     	;# 
   836     029E                     	;# 
   837     0311                     	;# 
   838     0311                     	;# 
   839     0312                     	;# 
   840     0313                     	;# 
   841     0318                     	;# 
   842     0318                     	;# 
   843     0319                     	;# 
   844     031A                     	;# 
   845     0394                     	;# 
   846     0395                     	;# 
   847     0396                     	;# 
   848     039A                     	;# 
   849     039C                     	;# 
   850     039D                     	;# 
   851     039E                     	;# 
   852     039F                     	;# 
   853     0415                     	;# 
   854     0416                     	;# 
   855     0417                     	;# 
   856     041C                     	;# 
   857     041D                     	;# 
   858     041E                     	;# 
   859     0FE4                     	;# 
   860     0FE5                     	;# 
   861     0FE6                     	;# 
   862     0FE7                     	;# 
   863     0FE8                     	;# 
   864     0FE9                     	;# 
   865     0FEA                     	;# 
   866     0FEB                     	;# 
   867     0FED                     	;# 
   868     0FEE                     	;# 
   869     0FEF                     	;# 
   870     0000                     	;# 
   871     0001                     	;# 
   872     0002                     	;# 
   873     0003                     	;# 
   874     0004                     	;# 
   875     0005                     	;# 
   876     0006                     	;# 
   877     0007                     	;# 
   878     0008                     	;# 
   879     0009                     	;# 
   880     000A                     	;# 
   881     000B                     	;# 
   882     000C                     	;# 
   883     000D                     	;# 
   884     0011                     	;# 
   885     0012                     	;# 
   886     0013                     	;# 
   887     0014                     	;# 
   888     0015                     	;# 
   889     0016                     	;# 
   890     0016                     	;# 
   891     0017                     	;# 
   892     0018                     	;# 
   893     0019                     	;# 
   894     001A                     	;# 
   895     001B                     	;# 
   896     001C                     	;# 
   897     001E                     	;# 
   898     001F                     	;# 
   899     008C                     	;# 
   900     008D                     	;# 
   901     0091                     	;# 
   902     0092                     	;# 
   903     0093                     	;# 
   904     0094                     	;# 
   905     0095                     	;# 
   906     0096                     	;# 
   907     0097                     	;# 
   908     0098                     	;# 
   909     0099                     	;# 
   910     009A                     	;# 
   911     009B                     	;# 
   912     009B                     	;# 
   913     009C                     	;# 
   914     009D                     	;# 
   915     009E                     	;# 
   916     010C                     	;# 
   917     010D                     	;# 
   918     0111                     	;# 
   919     0112                     	;# 
   920     0113                     	;# 
   921     0114                     	;# 
   922     0115                     	;# 
   923     0116                     	;# 
   924     0117                     	;# 
   925     0118                     	;# 
   926     0119                     	;# 
   927     011A                     	;# 
   928     011B                     	;# 
   929     011D                     	;# 
   930     011E                     	;# 
   931     018C                     	;# 
   932     018D                     	;# 
   933     0191                     	;# 
   934     0191                     	;# 
   935     0192                     	;# 
   936     0193                     	;# 
   937     0193                     	;# 
   938     0193                     	;# 
   939     0194                     	;# 
   940     0195                     	;# 
   941     0196                     	;# 
   942     0199                     	;# 
   943     019A                     	;# 
   944     019B                     	;# 
   945     019B                     	;# 
   946     019B                     	;# 
   947     019B                     	;# 
   948     019C                     	;# 
   949     019C                     	;# 
   950     019D                     	;# 
   951     019E                     	;# 
   952     019F                     	;# 
   953     020C                     	;# 
   954     020D                     	;# 
   955     0211                     	;# 
   956     0211                     	;# 
   957     0212                     	;# 
   958     0212                     	;# 
   959     0213                     	;# 
   960     0213                     	;# 
   961     0214                     	;# 
   962     0214                     	;# 
   963     0215                     	;# 
   964     0215                     	;# 
   965     0215                     	;# 
   966     0216                     	;# 
   967     0216                     	;# 
   968     0217                     	;# 
   969     0217                     	;# 
   970     0219                     	;# 
   971     021A                     	;# 
   972     021B                     	;# 
   973     021C                     	;# 
   974     021D                     	;# 
   975     021E                     	;# 
   976     021F                     	;# 
   977     0291                     	;# 
   978     0291                     	;# 
   979     0292                     	;# 
   980     0293                     	;# 
   981     0294                     	;# 
   982     0295                     	;# 
   983     0295                     	;# 
   984     0296                     	;# 
   985     0298                     	;# 
   986     0298                     	;# 
   987     0299                     	;# 
   988     029A                     	;# 
   989     029B                     	;# 
   990     029C                     	;# 
   991     029C                     	;# 
   992     029D                     	;# 
   993     029E                     	;# 
   994     029E                     	;# 
   995     0311                     	;# 
   996     0311                     	;# 
   997     0312                     	;# 
   998     0313                     	;# 
   999     0318                     	;# 
  1000     0318                     	;# 
  1001     0319                     	;# 
  1002     031A                     	;# 
  1003     0394                     	;# 
  1004     0395                     	;# 
  1005     0396                     	;# 
  1006     039A                     	;# 
  1007     039C                     	;# 
  1008     039D                     	;# 
  1009     039E                     	;# 
  1010     039F                     	;# 
  1011     0415                     	;# 
  1012     0416                     	;# 
  1013     0417                     	;# 
  1014     041C                     	;# 
  1015     041D                     	;# 
  1016     041E                     	;# 
  1017     0FE4                     	;# 
  1018     0FE5                     	;# 
  1019     0FE6                     	;# 
  1020     0FE7                     	;# 
  1021     0FE8                     	;# 
  1022     0FE9                     	;# 
  1023     0FEA                     	;# 
  1024     0FEB                     	;# 
  1025     0FED                     	;# 
  1026     0FEE                     	;# 
  1027     0FEF                     	;# 
  1028     0000                     	;# 
  1029     0001                     	;# 
  1030     0002                     	;# 
  1031     0003                     	;# 
  1032     0004                     	;# 
  1033     0005                     	;# 
  1034     0006                     	;# 
  1035     0007                     	;# 
  1036     0008                     	;# 
  1037     0009                     	;# 
  1038     000A                     	;# 
  1039     000B                     	;# 
  1040     000C                     	;# 
  1041     000D                     	;# 
  1042     0011                     	;# 
  1043     0012                     	;# 
  1044     0013                     	;# 
  1045     0014                     	;# 
  1046     0015                     	;# 
  1047     0016                     	;# 
  1048     0016                     	;# 
  1049     0017                     	;# 
  1050     0018                     	;# 
  1051     0019                     	;# 
  1052     001A                     	;# 
  1053     001B                     	;# 
  1054     001C                     	;# 
  1055     001E                     	;# 
  1056     001F                     	;# 
  1057     008C                     	;# 
  1058     008D                     	;# 
  1059     0091                     	;# 
  1060     0092                     	;# 
  1061     0093                     	;# 
  1062     0094                     	;# 
  1063     0095                     	;# 
  1064     0096                     	;# 
  1065     0097                     	;# 
  1066     0098                     	;# 
  1067     0099                     	;# 
  1068     009A                     	;# 
  1069     009B                     	;# 
  1070     009B                     	;# 
  1071     009C                     	;# 
  1072     009D                     	;# 
  1073     009E                     	;# 
  1074     010C                     	;# 
  1075     010D                     	;# 
  1076     0111                     	;# 
  1077     0112                     	;# 
  1078     0113                     	;# 
  1079     0114                     	;# 
  1080     0115                     	;# 
  1081     0116                     	;# 
  1082     0117                     	;# 
  1083     0118                     	;# 
  1084     0119                     	;# 
  1085     011A                     	;# 
  1086     011B                     	;# 
  1087     011D                     	;# 
  1088     011E                     	;# 
  1089     018C                     	;# 
  1090     018D                     	;# 
  1091     0191                     	;# 
  1092     0191                     	;# 
  1093     0192                     	;# 
  1094     0193                     	;# 
  1095     0193                     	;# 
  1096     0193                     	;# 
  1097     0194                     	;# 
  1098     0195                     	;# 
  1099     0196                     	;# 
  1100     0199                     	;# 
  1101     019A                     	;# 
  1102     019B                     	;# 
  1103     019B                     	;# 
  1104     019B                     	;# 
  1105     019B                     	;# 
  1106     019C                     	;# 
  1107     019C                     	;# 
  1108     019D                     	;# 
  1109     019E                     	;# 
  1110     019F                     	;# 
  1111     020C                     	;# 
  1112     020D                     	;# 
  1113     0211                     	;# 
  1114     0211                     	;# 
  1115     0212                     	;# 
  1116     0212                     	;# 
  1117     0213                     	;# 
  1118     0213                     	;# 
  1119     0214                     	;# 
  1120     0214                     	;# 
  1121     0215                     	;# 
  1122     0215                     	;# 
  1123     0215                     	;# 
  1124     0216                     	;# 
  1125     0216                     	;# 
  1126     0217                     	;# 
  1127     0217                     	;# 
  1128     0219                     	;# 
  1129     021A                     	;# 
  1130     021B                     	;# 
  1131     021C                     	;# 
  1132     021D                     	;# 
  1133     021E                     	;# 
  1134     021F                     	;# 
  1135     0291                     	;# 
  1136     0291                     	;# 
  1137     0292                     	;# 
  1138     0293                     	;# 
  1139     0294                     	;# 
  1140     0295                     	;# 
  1141     0295                     	;# 
  1142     0296                     	;# 
  1143     0298                     	;# 
  1144     0298                     	;# 
  1145     0299                     	;# 
  1146     029A                     	;# 
  1147     029B                     	;# 
  1148     029C                     	;# 
  1149     029C                     	;# 
  1150     029D                     	;# 
  1151     029E                     	;# 
  1152     029E                     	;# 
  1153     0311                     	;# 
  1154     0311                     	;# 
  1155     0312                     	;# 
  1156     0313                     	;# 
  1157     0318                     	;# 
  1158     0318                     	;# 
  1159     0319                     	;# 
  1160     031A                     	;# 
  1161     0394                     	;# 
  1162     0395                     	;# 
  1163     0396                     	;# 
  1164     039A                     	;# 
  1165     039C                     	;# 
  1166     039D                     	;# 
  1167     039E                     	;# 
  1168     039F                     	;# 
  1169     0415                     	;# 
  1170     0416                     	;# 
  1171     0417                     	;# 
  1172     041C                     	;# 
  1173     041D                     	;# 
  1174     041E                     	;# 
  1175     0FE4                     	;# 
  1176     0FE5                     	;# 
  1177     0FE6                     	;# 
  1178     0FE7                     	;# 
  1179     0FE8                     	;# 
  1180     0FE9                     	;# 
  1181     0FEA                     	;# 
  1182     0FEB                     	;# 
  1183     0FED                     	;# 
  1184     0FEE                     	;# 
  1185     0FEF                     	;# 
  1186     0000                     	;# 
  1187     0001                     	;# 
  1188     0002                     	;# 
  1189     0003                     	;# 
  1190     0004                     	;# 
  1191     0005                     	;# 
  1192     0006                     	;# 
  1193     0007                     	;# 
  1194     0008                     	;# 
  1195     0009                     	;# 
  1196     000A                     	;# 
  1197     000B                     	;# 
  1198     000C                     	;# 
  1199     000D                     	;# 
  1200     0011                     	;# 
  1201     0012                     	;# 
  1202     0013                     	;# 
  1203     0014                     	;# 
  1204     0015                     	;# 
  1205     0016                     	;# 
  1206     0016                     	;# 
  1207     0017                     	;# 
  1208     0018                     	;# 
  1209     0019                     	;# 
  1210     001A                     	;# 
  1211     001B                     	;# 
  1212     001C                     	;# 
  1213     001E                     	;# 
  1214     001F                     	;# 
  1215     008C                     	;# 
  1216     008D                     	;# 
  1217     0091                     	;# 
  1218     0092                     	;# 
  1219     0093                     	;# 
  1220     0094                     	;# 
  1221     0095                     	;# 
  1222     0096                     	;# 
  1223     0097                     	;# 
  1224     0098                     	;# 
  1225     0099                     	;# 
  1226     009A                     	;# 
  1227     009B                     	;# 
  1228     009B                     	;# 
  1229     009C                     	;# 
  1230     009D                     	;# 
  1231     009E                     	;# 
  1232     010C                     	;# 
  1233     010D                     	;# 
  1234     0111                     	;# 
  1235     0112                     	;# 
  1236     0113                     	;# 
  1237     0114                     	;# 
  1238     0115                     	;# 
  1239     0116                     	;# 
  1240     0117                     	;# 
  1241     0118                     	;# 
  1242     0119                     	;# 
  1243     011A                     	;# 
  1244     011B                     	;# 
  1245     011D                     	;# 
  1246     011E                     	;# 
  1247     018C                     	;# 
  1248     018D                     	;# 
  1249     0191                     	;# 
  1250     0191                     	;# 
  1251     0192                     	;# 
  1252     0193                     	;# 
  1253     0193                     	;# 
  1254     0193                     	;# 
  1255     0194                     	;# 
  1256     0195                     	;# 
  1257     0196                     	;# 
  1258     0199                     	;# 
  1259     019A                     	;# 
  1260     019B                     	;# 
  1261     019B                     	;# 
  1262     019B                     	;# 
  1263     019B                     	;# 
  1264     019C                     	;# 
  1265     019C                     	;# 
  1266     019D                     	;# 
  1267     019E                     	;# 
  1268     019F                     	;# 
  1269     020C                     	;# 
  1270     020D                     	;# 
  1271     0211                     	;# 
  1272     0211                     	;# 
  1273     0212                     	;# 
  1274     0212                     	;# 
  1275     0213                     	;# 
  1276     0213                     	;# 
  1277     0214                     	;# 
  1278     0214                     	;# 
  1279     0215                     	;# 
  1280     0215                     	;# 
  1281     0215                     	;# 
  1282     0216                     	;# 
  1283     0216                     	;# 
  1284     0217                     	;# 
  1285     0217                     	;# 
  1286     0219                     	;# 
  1287     021A                     	;# 
  1288     021B                     	;# 
  1289     021C                     	;# 
  1290     021D                     	;# 
  1291     021E                     	;# 
  1292     021F                     	;# 
  1293     0291                     	;# 
  1294     0291                     	;# 
  1295     0292                     	;# 
  1296     0293                     	;# 
  1297     0294                     	;# 
  1298     0295                     	;# 
  1299     0295                     	;# 
  1300     0296                     	;# 
  1301     0298                     	;# 
  1302     0298                     	;# 
  1303     0299                     	;# 
  1304     029A                     	;# 
  1305     029B                     	;# 
  1306     029C                     	;# 
  1307     029C                     	;# 
  1308     029D                     	;# 
  1309     029E                     	;# 
  1310     029E                     	;# 
  1311     0311                     	;# 
  1312     0311                     	;# 
  1313     0312                     	;# 
  1314     0313                     	;# 
  1315     0318                     	;# 
  1316     0318                     	;# 
  1317     0319                     	;# 
  1318     031A                     	;# 
  1319     0394                     	;# 
  1320     0395                     	;# 
  1321     0396                     	;# 
  1322     039A                     	;# 
  1323     039C                     	;# 
  1324     039D                     	;# 
  1325     039E                     	;# 
  1326     039F                     	;# 
  1327     0415                     	;# 
  1328     0416                     	;# 
  1329     0417                     	;# 
  1330     041C                     	;# 
  1331     041D                     	;# 
  1332     041E                     	;# 
  1333     0FE4                     	;# 
  1334     0FE5                     	;# 
  1335     0FE6                     	;# 
  1336     0FE7                     	;# 
  1337     0FE8                     	;# 
  1338     0FE9                     	;# 
  1339     0FEA                     	;# 
  1340     0FEB                     	;# 
  1341     0FED                     	;# 
  1342     0FEE                     	;# 
  1343     0FEF                     	;# 
  1344     0000                     	;# 
  1345     0001                     	;# 
  1346     0002                     	;# 
  1347     0003                     	;# 
  1348     0004                     	;# 
  1349     0005                     	;# 
  1350     0006                     	;# 
  1351     0007                     	;# 
  1352     0008                     	;# 
  1353     0009                     	;# 
  1354     000A                     	;# 
  1355     000B                     	;# 
  1356     000C                     	;# 
  1357     000D                     	;# 
  1358     0011                     	;# 
  1359     0012                     	;# 
  1360     0013                     	;# 
  1361     0014                     	;# 
  1362     0015                     	;# 
  1363     0016                     	;# 
  1364     0016                     	;# 
  1365     0017                     	;# 
  1366     0018                     	;# 
  1367     0019                     	;# 
  1368     001A                     	;# 
  1369     001B                     	;# 
  1370     001C                     	;# 
  1371     001E                     	;# 
  1372     001F                     	;# 
  1373     008C                     	;# 
  1374     008D                     	;# 
  1375     0091                     	;# 
  1376     0092                     	;# 
  1377     0093                     	;# 
  1378     0094                     	;# 
  1379     0095                     	;# 
  1380     0096                     	;# 
  1381     0097                     	;# 
  1382     0098                     	;# 
  1383     0099                     	;# 
  1384     009A                     	;# 
  1385     009B                     	;# 
  1386     009B                     	;# 
  1387     009C                     	;# 
  1388     009D                     	;# 
  1389     009E                     	;# 
  1390     010C                     	;# 
  1391     010D                     	;# 
  1392     0111                     	;# 
  1393     0112                     	;# 
  1394     0113                     	;# 
  1395     0114                     	;# 
  1396     0115                     	;# 
  1397     0116                     	;# 
  1398     0117                     	;# 
  1399     0118                     	;# 
  1400     0119                     	;# 
  1401     011A                     	;# 
  1402     011B                     	;# 
  1403     011D                     	;# 
  1404     011E                     	;# 
  1405     018C                     	;# 
  1406     018D                     	;# 
  1407     0191                     	;# 
  1408     0191                     	;# 
  1409     0192                     	;# 
  1410     0193                     	;# 
  1411     0193                     	;# 
  1412     0193                     	;# 
  1413     0194                     	;# 
  1414     0195                     	;# 
  1415     0196                     	;# 
  1416     0199                     	;# 
  1417     019A                     	;# 
  1418     019B                     	;# 
  1419     019B                     	;# 
  1420     019B                     	;# 
  1421     019B                     	;# 
  1422     019C                     	;# 
  1423     019C                     	;# 
  1424     019D                     	;# 
  1425     019E                     	;# 
  1426     019F                     	;# 
  1427     020C                     	;# 
  1428     020D                     	;# 
  1429     0211                     	;# 
  1430     0211                     	;# 
  1431     0212                     	;# 
  1432     0212                     	;# 
  1433     0213                     	;# 
  1434     0213                     	;# 
  1435     0214                     	;# 
  1436     0214                     	;# 
  1437     0215                     	;# 
  1438     0215                     	;# 
  1439     0215                     	;# 
  1440     0216                     	;# 
  1441     0216                     	;# 
  1442     0217                     	;# 
  1443     0217                     	;# 
  1444     0219                     	;# 
  1445     021A                     	;# 
  1446     021B                     	;# 
  1447     021C                     	;# 
  1448     021D                     	;# 
  1449     021E                     	;# 
  1450     021F                     	;# 
  1451     0291                     	;# 
  1452     0291                     	;# 
  1453     0292                     	;# 
  1454     0293                     	;# 
  1455     0294                     	;# 
  1456     0295                     	;# 
  1457     0295                     	;# 
  1458     0296                     	;# 
  1459     0298                     	;# 
  1460     0298                     	;# 
  1461     0299                     	;# 
  1462     029A                     	;# 
  1463     029B                     	;# 
  1464     029C                     	;# 
  1465     029C                     	;# 
  1466     029D                     	;# 
  1467     029E                     	;# 
  1468     029E                     	;# 
  1469     0311                     	;# 
  1470     0311                     	;# 
  1471     0312                     	;# 
  1472     0313                     	;# 
  1473     0318                     	;# 
  1474     0318                     	;# 
  1475     0319                     	;# 
  1476     031A                     	;# 
  1477     0394                     	;# 
  1478     0395                     	;# 
  1479     0396                     	;# 
  1480     039A                     	;# 
  1481     039C                     	;# 
  1482     039D                     	;# 
  1483     039E                     	;# 
  1484     039F                     	;# 
  1485     0415                     	;# 
  1486     0416                     	;# 
  1487     0417                     	;# 
  1488     041C                     	;# 
  1489     041D                     	;# 
  1490     041E                     	;# 
  1491     0FE4                     	;# 
  1492     0FE5                     	;# 
  1493     0FE6                     	;# 
  1494     0FE7                     	;# 
  1495     0FE8                     	;# 
  1496     0FE9                     	;# 
  1497     0FEA                     	;# 
  1498     0FEB                     	;# 
  1499     0FED                     	;# 
  1500     0FEE                     	;# 
  1501     0FEF                     	;# 
  1502     0000                     	;# 
  1503     0001                     	;# 
  1504     0002                     	;# 
  1505     0003                     	;# 
  1506     0004                     	;# 
  1507     0005                     	;# 
  1508     0006                     	;# 
  1509     0007                     	;# 
  1510     0008                     	;# 
  1511     0009                     	;# 
  1512     000A                     	;# 
  1513     000B                     	;# 
  1514     000C                     	;# 
  1515     000D                     	;# 
  1516     0011                     	;# 
  1517     0012                     	;# 
  1518     0013                     	;# 
  1519     0014                     	;# 
  1520     0015                     	;# 
  1521     0016                     	;# 
  1522     0016                     	;# 
  1523     0017                     	;# 
  1524     0018                     	;# 
  1525     0019                     	;# 
  1526     001A                     	;# 
  1527     001B                     	;# 
  1528     001C                     	;# 
  1529     001E                     	;# 
  1530     001F                     	;# 
  1531     008C                     	;# 
  1532     008D                     	;# 
  1533     0091                     	;# 
  1534     0092                     	;# 
  1535     0093                     	;# 
  1536     0094                     	;# 
  1537     0095                     	;# 
  1538     0096                     	;# 
  1539     0097                     	;# 
  1540     0098                     	;# 
  1541     0099                     	;# 
  1542     009A                     	;# 
  1543     009B                     	;# 
  1544     009B                     	;# 
  1545     009C                     	;# 
  1546     009D                     	;# 
  1547     009E                     	;# 
  1548     010C                     	;# 
  1549     010D                     	;# 
  1550     0111                     	;# 
  1551     0112                     	;# 
  1552     0113                     	;# 
  1553     0114                     	;# 
  1554     0115                     	;# 
  1555     0116                     	;# 
  1556     0117                     	;# 
  1557     0118                     	;# 
  1558     0119                     	;# 
  1559     011A                     	;# 
  1560     011B                     	;# 
  1561     011D                     	;# 
  1562     011E                     	;# 
  1563     018C                     	;# 
  1564     018D                     	;# 
  1565     0191                     	;# 
  1566     0191                     	;# 
  1567     0192                     	;# 
  1568     0193                     	;# 
  1569     0193                     	;# 
  1570     0193                     	;# 
  1571     0194                     	;# 
  1572     0195                     	;# 
  1573     0196                     	;# 
  1574     0199                     	;# 
  1575     019A                     	;# 
  1576     019B                     	;# 
  1577     019B                     	;# 
  1578     019B                     	;# 
  1579     019B                     	;# 
  1580     019C                     	;# 
  1581     019C                     	;# 
  1582     019D                     	;# 
  1583     019E                     	;# 
  1584     019F                     	;# 
  1585     020C                     	;# 
  1586     020D                     	;# 
  1587     0211                     	;# 
  1588     0211                     	;# 
  1589     0212                     	;# 
  1590     0212                     	;# 
  1591     0213                     	;# 
  1592     0213                     	;# 
  1593     0214                     	;# 
  1594     0214                     	;# 
  1595     0215                     	;# 
  1596     0215                     	;# 
  1597     0215                     	;# 
  1598     0216                     	;# 
  1599     0216                     	;# 
  1600     0217                     	;# 
  1601     0217                     	;# 
  1602     0219                     	;# 
  1603     021A                     	;# 
  1604     021B                     	;# 
  1605     021C                     	;# 
  1606     021D                     	;# 
  1607     021E                     	;# 
  1608     021F                     	;# 
  1609     0291                     	;# 
  1610     0291                     	;# 
  1611     0292                     	;# 
  1612     0293                     	;# 
  1613     0294                     	;# 
  1614     0295                     	;# 
  1615     0295                     	;# 
  1616     0296                     	;# 
  1617     0298                     	;# 
  1618     0298                     	;# 
  1619     0299                     	;# 
  1620     029A                     	;# 
  1621     029B                     	;# 
  1622     029C                     	;# 
  1623     029C                     	;# 
  1624     029D                     	;# 
  1625     029E                     	;# 
  1626     029E                     	;# 
  1627     0311                     	;# 
  1628     0311                     	;# 
  1629     0312                     	;# 
  1630     0313                     	;# 
  1631     0318                     	;# 
  1632     0318                     	;# 
  1633     0319                     	;# 
  1634     031A                     	;# 
  1635     0394                     	;# 
  1636     0395                     	;# 
  1637     0396                     	;# 
  1638     039A                     	;# 
  1639     039C                     	;# 
  1640     039D                     	;# 
  1641     039E                     	;# 
  1642     039F                     	;# 
  1643     0415                     	;# 
  1644     0416                     	;# 
  1645     0417                     	;# 
  1646     041C                     	;# 
  1647     041D                     	;# 
  1648     041E                     	;# 
  1649     0FE4                     	;# 
  1650     0FE5                     	;# 
  1651     0FE6                     	;# 
  1652     0FE7                     	;# 
  1653     0FE8                     	;# 
  1654     0FE9                     	;# 
  1655     0FEA                     	;# 
  1656     0FEB                     	;# 
  1657     0FED                     	;# 
  1658     0FEE                     	;# 
  1659     0FEF                     	;# 
  1660     0000                     	;# 
  1661     0001                     	;# 
  1662     0002                     	;# 
  1663     0003                     	;# 
  1664     0004                     	;# 
  1665     0005                     	;# 
  1666     0006                     	;# 
  1667     0007                     	;# 
  1668     0008                     	;# 
  1669     0009                     	;# 
  1670     000A                     	;# 
  1671     000B                     	;# 
  1672     000C                     	;# 
  1673     000D                     	;# 
  1674     0011                     	;# 
  1675     0012                     	;# 
  1676     0013                     	;# 
  1677     0014                     	;# 
  1678     0015                     	;# 
  1679     0016                     	;# 
  1680     0016                     	;# 
  1681     0017                     	;# 
  1682     0018                     	;# 
  1683     0019                     	;# 
  1684     001A                     	;# 
  1685     001B                     	;# 
  1686     001C                     	;# 
  1687     001E                     	;# 
  1688     001F                     	;# 
  1689     008C                     	;# 
  1690     008D                     	;# 
  1691     0091                     	;# 
  1692     0092                     	;# 
  1693     0093                     	;# 
  1694     0094                     	;# 
  1695     0095                     	;# 
  1696     0096                     	;# 
  1697     0097                     	;# 
  1698     0098                     	;# 
  1699     0099                     	;# 
  1700     009A                     	;# 
  1701     009B                     	;# 
  1702     009B                     	;# 
  1703     009C                     	;# 
  1704     009D                     	;# 
  1705     009E                     	;# 
  1706     010C                     	;# 
  1707     010D                     	;# 
  1708     0111                     	;# 
  1709     0112                     	;# 
  1710     0113                     	;# 
  1711     0114                     	;# 
  1712     0115                     	;# 
  1713     0116                     	;# 
  1714     0117                     	;# 
  1715     0118                     	;# 
  1716     0119                     	;# 
  1717     011A                     	;# 
  1718     011B                     	;# 
  1719     011D                     	;# 
  1720     011E                     	;# 
  1721     018C                     	;# 
  1722     018D                     	;# 
  1723     0191                     	;# 
  1724     0191                     	;# 
  1725     0192                     	;# 
  1726     0193                     	;# 
  1727     0193                     	;# 
  1728     0193                     	;# 
  1729     0194                     	;# 
  1730     0195                     	;# 
  1731     0196                     	;# 
  1732     0199                     	;# 
  1733     019A                     	;# 
  1734     019B                     	;# 
  1735     019B                     	;# 
  1736     019B                     	;# 
  1737     019B                     	;# 
  1738     019C                     	;# 
  1739     019C                     	;# 
  1740     019D                     	;# 
  1741     019E                     	;# 
  1742     019F                     	;# 
  1743     020C                     	;# 
  1744     020D                     	;# 
  1745     0211                     	;# 
  1746     0211                     	;# 
  1747     0212                     	;# 
  1748     0212                     	;# 
  1749     0213                     	;# 
  1750     0213                     	;# 
  1751     0214                     	;# 
  1752     0214                     	;# 
  1753     0215                     	;# 
  1754     0215                     	;# 
  1755     0215                     	;# 
  1756     0216                     	;# 
  1757     0216                     	;# 
  1758     0217                     	;# 
  1759     0217                     	;# 
  1760     0219                     	;# 
  1761     021A                     	;# 
  1762     021B                     	;# 
  1763     021C                     	;# 
  1764     021D                     	;# 
  1765     021E                     	;# 
  1766     021F                     	;# 
  1767     0291                     	;# 
  1768     0291                     	;# 
  1769     0292                     	;# 
  1770     0293                     	;# 
  1771     0294                     	;# 
  1772     0295                     	;# 
  1773     0295                     	;# 
  1774     0296                     	;# 
  1775     0298                     	;# 
  1776     0298                     	;# 
  1777     0299                     	;# 
  1778     029A                     	;# 
  1779     029B                     	;# 
  1780     029C                     	;# 
  1781     029C                     	;# 
  1782     029D                     	;# 
  1783     029E                     	;# 
  1784     029E                     	;# 
  1785     0311                     	;# 
  1786     0311                     	;# 
  1787     0312                     	;# 
  1788     0313                     	;# 
  1789     0318                     	;# 
  1790     0318                     	;# 
  1791     0319                     	;# 
  1792     031A                     	;# 
  1793     0394                     	;# 
  1794     0395                     	;# 
  1795     0396                     	;# 
  1796     039A                     	;# 
  1797     039C                     	;# 
  1798     039D                     	;# 
  1799     039E                     	;# 
  1800     039F                     	;# 
  1801     0415                     	;# 
  1802     0416                     	;# 
  1803     0417                     	;# 
  1804     041C                     	;# 
  1805     041D                     	;# 
  1806     041E                     	;# 
  1807     0FE4                     	;# 
  1808     0FE5                     	;# 
  1809     0FE6                     	;# 
  1810     0FE7                     	;# 
  1811     0FE8                     	;# 
  1812     0FE9                     	;# 
  1813     0FEA                     	;# 
  1814     0FEB                     	;# 
  1815     0FED                     	;# 
  1816     0FEE                     	;# 
  1817     0FEF                     	;# 
  1818     0000                     	;# 
  1819     0001                     	;# 
  1820     0002                     	;# 
  1821     0003                     	;# 
  1822     0004                     	;# 
  1823     0005                     	;# 
  1824     0006                     	;# 
  1825     0007                     	;# 
  1826     0008                     	;# 
  1827     0009                     	;# 
  1828     000A                     	;# 
  1829     000B                     	;# 
  1830     000C                     	;# 
  1831     000D                     	;# 
  1832     0011                     	;# 
  1833     0012                     	;# 
  1834     0013                     	;# 
  1835     0014                     	;# 
  1836     0015                     	;# 
  1837     0016                     	;# 
  1838     0016                     	;# 
  1839     0017                     	;# 
  1840     0018                     	;# 
  1841     0019                     	;# 
  1842     001A                     	;# 
  1843     001B                     	;# 
  1844     001C                     	;# 
  1845     001E                     	;# 
  1846     001F                     	;# 
  1847     008C                     	;# 
  1848     008D                     	;# 
  1849     0091                     	;# 
  1850     0092                     	;# 
  1851     0093                     	;# 
  1852     0094                     	;# 
  1853     0095                     	;# 
  1854     0096                     	;# 
  1855     0097                     	;# 
  1856     0098                     	;# 
  1857     0099                     	;# 
  1858     009A                     	;# 
  1859     009B                     	;# 
  1860     009B                     	;# 
  1861     009C                     	;# 
  1862     009D                     	;# 
  1863     009E                     	;# 
  1864     010C                     	;# 
  1865     010D                     	;# 
  1866     0111                     	;# 
  1867     0112                     	;# 
  1868     0113                     	;# 
  1869     0114                     	;# 
  1870     0115                     	;# 
  1871     0116                     	;# 
  1872     0117                     	;# 
  1873     0118                     	;# 
  1874     0119                     	;# 
  1875     011A                     	;# 
  1876     011B                     	;# 
  1877     011D                     	;# 
  1878     011E                     	;# 
  1879     018C                     	;# 
  1880     018D                     	;# 
  1881     0191                     	;# 
  1882     0191                     	;# 
  1883     0192                     	;# 
  1884     0193                     	;# 
  1885     0193                     	;# 
  1886     0193                     	;# 
  1887     0194                     	;# 
  1888     0195                     	;# 
  1889     0196                     	;# 
  1890     0199                     	;# 
  1891     019A                     	;# 
  1892     019B                     	;# 
  1893     019B                     	;# 
  1894     019B                     	;# 
  1895     019B                     	;# 
  1896     019C                     	;# 
  1897     019C                     	;# 
  1898     019D                     	;# 
  1899     019E                     	;# 
  1900     019F                     	;# 
  1901     020C                     	;# 
  1902     020D                     	;# 
  1903     0211                     	;# 
  1904     0211                     	;# 
  1905     0212                     	;# 
  1906     0212                     	;# 
  1907     0213                     	;# 
  1908     0213                     	;# 
  1909     0214                     	;# 
  1910     0214                     	;# 
  1911     0215                     	;# 
  1912     0215                     	;# 
  1913     0215                     	;# 
  1914     0216                     	;# 
  1915     0216                     	;# 
  1916     0217                     	;# 
  1917     0217                     	;# 
  1918     0219                     	;# 
  1919     021A                     	;# 
  1920     021B                     	;# 
  1921     021C                     	;# 
  1922     021D                     	;# 
  1923     021E                     	;# 
  1924     021F                     	;# 
  1925     0291                     	;# 
  1926     0291                     	;# 
  1927     0292                     	;# 
  1928     0293                     	;# 
  1929     0294                     	;# 
  1930     0295                     	;# 
  1931     0295                     	;# 
  1932     0296                     	;# 
  1933     0298                     	;# 
  1934     0298                     	;# 
  1935     0299                     	;# 
  1936     029A                     	;# 
  1937     029B                     	;# 
  1938     029C                     	;# 
  1939     029C                     	;# 
  1940     029D                     	;# 
  1941     029E                     	;# 
  1942     029E                     	;# 
  1943     0311                     	;# 
  1944     0311                     	;# 
  1945     0312                     	;# 
  1946     0313                     	;# 
  1947     0318                     	;# 
  1948     0318                     	;# 
  1949     0319                     	;# 
  1950     031A                     	;# 
  1951     0394                     	;# 
  1952     0395                     	;# 
  1953     0396                     	;# 
  1954     039A                     	;# 
  1955     039C                     	;# 
  1956     039D                     	;# 
  1957     039E                     	;# 
  1958     039F                     	;# 
  1959     0415                     	;# 
  1960     0416                     	;# 
  1961     0417                     	;# 
  1962     041C                     	;# 
  1963     041D                     	;# 
  1964     041E                     	;# 
  1965     0FE4                     	;# 
  1966     0FE5                     	;# 
  1967     0FE6                     	;# 
  1968     0FE7                     	;# 
  1969     0FE8                     	;# 
  1970     0FE9                     	;# 
  1971     0FEA                     	;# 
  1972     0FEB                     	;# 
  1973     0FED                     	;# 
  1974     0FEE                     	;# 
  1975     0FEF                     	;# 
  1976     0000                     	;# 
  1977     0001                     	;# 
  1978     0002                     	;# 
  1979     0003                     	;# 
  1980     0004                     	;# 
  1981     0005                     	;# 
  1982     0006                     	;# 
  1983     0007                     	;# 
  1984     0008                     	;# 
  1985     0009                     	;# 
  1986     000A                     	;# 
  1987     000B                     	;# 
  1988     000C                     	;# 
  1989     000D                     	;# 
  1990     0011                     	;# 
  1991     0012                     	;# 
  1992     0013                     	;# 
  1993     0014                     	;# 
  1994     0015                     	;# 
  1995     0016                     	;# 
  1996     0016                     	;# 
  1997     0017                     	;# 
  1998     0018                     	;# 
  1999     0019                     	;# 
  2000     001A                     	;# 
  2001     001B                     	;# 
  2002     001C                     	;# 
  2003     001E                     	;# 
  2004     001F                     	;# 
  2005     008C                     	;# 
  2006     008D                     	;# 
  2007     0091                     	;# 
  2008     0092                     	;# 
  2009     0093                     	;# 
  2010     0094                     	;# 
  2011     0095                     	;# 
  2012     0096                     	;# 
  2013     0097                     	;# 
  2014     0098                     	;# 
  2015     0099                     	;# 
  2016     009A                     	;# 
  2017     009B                     	;# 
  2018     009B                     	;# 
  2019     009C                     	;# 
  2020     009D                     	;# 
  2021     009E                     	;# 
  2022     010C                     	;# 
  2023     010D                     	;# 
  2024     0111                     	;# 
  2025     0112                     	;# 
  2026     0113                     	;# 
  2027     0114                     	;# 
  2028     0115                     	;# 
  2029     0116                     	;# 
  2030     0117                     	;# 
  2031     0118                     	;# 
  2032     0119                     	;# 
  2033     011A                     	;# 
  2034     011B                     	;# 
  2035     011D                     	;# 
  2036     011E                     	;# 
  2037     018C                     	;# 
  2038     018D                     	;# 
  2039     0191                     	;# 
  2040     0191                     	;# 
  2041     0192                     	;# 
  2042     0193                     	;# 
  2043     0193                     	;# 
  2044     0193                     	;# 
  2045     0194                     	;# 
  2046     0195                     	;# 
  2047     0196                     	;# 
  2048     0199                     	;# 
  2049     019A                     	;# 
  2050     019B                     	;# 
  2051     019B                     	;# 
  2052     019B                     	;# 
  2053     019B                     	;# 
  2054     019C                     	;# 
  2055     019C                     	;# 
  2056     019D                     	;# 
  2057     019E                     	;# 
  2058     019F                     	;# 
  2059     020C                     	;# 
  2060     020D                     	;# 
  2061     0211                     	;# 
  2062     0211                     	;# 
  2063     0212                     	;# 
  2064     0212                     	;# 
  2065     0213                     	;# 
  2066     0213                     	;# 
  2067     0214                     	;# 
  2068     0214                     	;# 
  2069     0215                     	;# 
  2070     0215                     	;# 
  2071     0215                     	;# 
  2072     0216                     	;# 
  2073     0216                     	;# 
  2074     0217                     	;# 
  2075     0217                     	;# 
  2076     0219                     	;# 
  2077     021A                     	;# 
  2078     021B                     	;# 
  2079     021C                     	;# 
  2080     021D                     	;# 
  2081     021E                     	;# 
  2082     021F                     	;# 
  2083     0291                     	;# 
  2084     0291                     	;# 
  2085     0292                     	;# 
  2086     0293                     	;# 
  2087     0294                     	;# 
  2088     0295                     	;# 
  2089     0295                     	;# 
  2090     0296                     	;# 
  2091     0298                     	;# 
  2092     0298                     	;# 
  2093     0299                     	;# 
  2094     029A                     	;# 
  2095     029B                     	;# 
  2096     029C                     	;# 
  2097     029C                     	;# 
  2098     029D                     	;# 
  2099     029E                     	;# 
  2100     029E                     	;# 
  2101     0311                     	;# 
  2102     0311                     	;# 
  2103     0312                     	;# 
  2104     0313                     	;# 
  2105     0318                     	;# 
  2106     0318                     	;# 
  2107     0319                     	;# 
  2108     031A                     	;# 
  2109     0394                     	;# 
  2110     0395                     	;# 
  2111     0396                     	;# 
  2112     039A                     	;# 
  2113     039C                     	;# 
  2114     039D                     	;# 
  2115     039E                     	;# 
  2116     039F                     	;# 
  2117     0415                     	;# 
  2118     0416                     	;# 
  2119     0417                     	;# 
  2120     041C                     	;# 
  2121     041D                     	;# 
  2122     041E                     	;# 
  2123     0FE4                     	;# 
  2124     0FE5                     	;# 
  2125     0FE6                     	;# 
  2126     0FE7                     	;# 
  2127     0FE8                     	;# 
  2128     0FE9                     	;# 
  2129     0FEA                     	;# 
  2130     0FEB                     	;# 
  2131     0FED                     	;# 
  2132     0FEE                     	;# 
  2133     0FEF                     	;# 
  2134                           
  2135 ;; Function _EUSART_DefaultFramingErrorHandler is unused but had its address taken
  2136     0000                     
  2137 ;; Function _EUSART_DefaultOverrunErrorHandler is unused but had its address taken
  2138     0000                     
  2139 ;; Function _EUSART_DefaultErrorHandler is unused but had its address taken
  2140     0000                     
  2141                           	psect	idataBANK0
  2142     0505                     __pidataBANK0:
  2143                           
  2144                           ;initializer for _mapping
  2145     0505  3437               	retlw	55
  2146     0506  3438               	retlw	56
  2147     0507  3439               	retlw	57
  2148     0508  3401               	retlw	1
  2149     0509  3409               	retlw	9
  2150     050A  3408               	retlw	8
  2151     050B  3407               	retlw	7
  2152     050C  343F               	retlw	63
  2153                           
  2154                           ;initializer for _snakeSize
  2155     050D  3401               	retlw	1
  2156                           
  2157                           	psect	stringtext1
  2158     0800                     __pstringtext1:
  2159     0800                     _de_sigmoidValues:
  2160     0800  3440               	retlw	64
  2161     0801  3432               	retlw	50
  2162     0802  341B               	retlw	27
  2163     0803  340C               	retlw	12
  2164     0804  3405               	retlw	5
  2165     0805  3402               	retlw	2
  2166     0806  3401               	retlw	1
  2167     0807  3400               	retlw	0
  2168     0808  3400               	retlw	0
  2169     0809  3400               	retlw	0
  2170     080A  3401               	retlw	1
  2171     080B  3402               	retlw	2
  2172     080C  3405               	retlw	5
  2173     080D  340C               	retlw	12
  2174     080E  341B               	retlw	27
  2175     080F  3432               	retlw	50
  2176     0810                     __end_of_de_sigmoidValues:
  2177                           
  2178                           	psect	stringtext2
  2179     0810                     __pstringtext2:
  2180     0810                     _sigmoidValues:
  2181     0810  3480               	retlw	128
  2182     0811  34BA               	retlw	186
  2183     0812  34E1               	retlw	225
  2184     0813  34F3               	retlw	243
  2185     0814  34FA               	retlw	250
  2186     0815  34FD               	retlw	253
  2187     0816  34FE               	retlw	254
  2188     0817  34FF               	retlw	255
  2189     0818  3400               	retlw	0
  2190     0819  3400               	retlw	0
  2191     081A  3401               	retlw	1
  2192     081B  3402               	retlw	2
  2193     081C  3405               	retlw	5
  2194     081D  340C               	retlw	12
  2195     081E  341E               	retlw	30
  2196     081F  3445               	retlw	69
  2197     0820                     __end_of_sigmoidValues:
  2198                           
  2199                           	psect	stringtext3
  2200     0820                     __pstringtext3:
  2201     0820                     _spi1_configuration:
  2202     0820  3402               	retlw	2
  2203     0821  3440               	retlw	64
  2204     0822  3401               	retlw	1
  2205     0823  3400               	retlw	0
  2206     0824                     __end_of_spi1_configuration:
  2207                           
  2208                           	psect	nvBANK1
  2209     00D8                     __pnvBANK1:
  2210     00D8                     _EUSART_ErrorHandler:
  2211     00D8                     	ds	2
  2212     00DA                     _EUSART_OverrunErrorHandler:
  2213     00DA                     	ds	2
  2214     00DC                     _EUSART_FramingErrorHandler:
  2215     00DC                     	ds	2
  2216     0003                     _STATUSbits	set	3
  2217     0011                     _PIR1bits	set	17
  2218     000B                     _INTCONbits	set	11
  2219     008C                     _TRISAbits	set	140
  2220     0097                     _WDTCON	set	151
  2221     0098                     _OSCTUNE	set	152
  2222     0099                     _OSCCON	set	153
  2223     008D                     _TRISBbits	set	141
  2224     0095                     _OPTION_REGbits	set	149
  2225     008D                     _TRISB	set	141
  2226     008C                     _TRISA	set	140
  2227     010D                     _LATBbits	set	269
  2228     010C                     _LATAbits	set	268
  2229     0116                     _BORCON	set	278
  2230     011E                     _APFCON1	set	286
  2231     011D                     _APFCON0	set	285
  2232     010D                     _LATB	set	269
  2233     010C                     _LATA	set	268
  2234     0191                     _EEADR	set	401
  2235     0193                     _EEDATA	set	403
  2236     0195                     _EECON1	set	405
  2237     018C                     _ANSELA	set	396
  2238     018D                     _ANSELB	set	397
  2239     019A                     _TXREG	set	410
  2240     0199                     _RCREG	set	409
  2241     019D                     _RCSTAbits	set	413
  2242     019E                     _TXSTAbits	set	414
  2243     019C                     _SPBRGH	set	412
  2244     019B                     _SPBRGL	set	411
  2245     019E                     _TXSTA	set	414
  2246     019D                     _RCSTA	set	413
  2247     019F                     _BAUDCON	set	415
  2248     0196                     _EECON2	set	406
  2249     0193                     _EEDATL	set	403
  2250     0194                     _EEDATH	set	404
  2251     0195                     _EECON1bits	set	405
  2252     0192                     _EEADRH	set	402
  2253     0191                     _EEADRL	set	401
  2254     0211                     _SSP1BUF	set	529
  2255     0216                     _SSP1CON2	set	534
  2256     0215                     _SSP1CON1bits	set	533
  2257     0212                     _SSP1ADD	set	530
  2258     0215                     _SSP1CON1	set	533
  2259     0214                     _SSP1STAT	set	532
  2260     020C                     _WPUA	set	524
  2261     020D                     _WPUB	set	525
  2262                           
  2263                           	psect	cinit
  2264     07D9                     start_initialization:	
  2265                           ; #config settings
  2266                           
  2267     07D9                     __initialization:
  2268                           
  2269                           ; Initialize objects allocated to BANK0
  2270     07D9  3005               	movlw	low __pidataBANK0
  2271     07DA  0084               	movwf	4
  2272     07DB  3085               	movlw	(high __pidataBANK0)| (0+128)
  2273     07DC  0085               	movwf	5
  2274     07DD  3066               	movlw	low __pdataBANK0
  2275     07DE  0086               	movwf	6
  2276     07DF  3000               	movlw	high __pdataBANK0
  2277     07E0  0087               	movwf	7
  2278     07E1  3009               	movlw	9
  2279     07E2  3184  24F8  3187   	fcall	init_ram
  2280                           
  2281                           ; Clear objects allocated to BANK0
  2282     07E5  3020               	movlw	low __pbssBANK0
  2283     07E6  0084               	movwf	4
  2284     07E7  3000               	movlw	high __pbssBANK0
  2285     07E8  0085               	movwf	5
  2286     07E9  3033               	movlw	51
  2287     07EA  3184  24F2  3187   	fcall	clear_ram0
  2288                           
  2289                           ; Clear objects allocated to BANK1
  2290     07ED  30A0               	movlw	low __pbssBANK1
  2291     07EE  0084               	movwf	4
  2292     07EF  3000               	movlw	high __pbssBANK1
  2293     07F0  0085               	movwf	5
  2294     07F1  3038               	movlw	56
  2295     07F2  3184  24F2  3187   	fcall	clear_ram0
  2296                           
  2297                           ; Clear objects allocated to BANK2
  2298     07F5  3020               	movlw	low __pbssBANK2
  2299     07F6  0084               	movwf	4
  2300     07F7  3001               	movlw	high __pbssBANK2
  2301     07F8  0085               	movwf	5
  2302     07F9  3040               	movlw	64
  2303     07FA  3184  24F2  3187   	fcall	clear_ram0
  2304     07FD                     end_of_initialization:	
  2305                           ;End of C runtime variable initialization code
  2306                           
  2307     07FD                     __end_of__initialization:
  2308     07FD  0020               	movlb	0
  2309     07FE  3186  2EAA         	ljmp	_main	;jump to C main() function
  2310                           
  2311                           	psect	bssBANK0
  2312     0020                     __pbssBANK0:
  2313     0020                     _DY2:
  2314     0020                     	ds	10
  2315     002A                     _Z2:
  2316     002A                     	ds	10
  2317     0034                     _Y1:
  2318     0034                     	ds	10
  2319     003E                     _matrix:
  2320     003E                     	ds	8
  2321     0046                     _choice:
  2322     0046                     	ds	1
  2323     0047                     _foodPosition:
  2324     0047                     	ds	1
  2325     0048                     _headPosition:
  2326     0048                     	ds	1
  2327     0049                     _eusartRxLastError:
  2328     0049                     	ds	1
  2329     004A                     _Y2:
  2330     004A                     	ds	5
  2331     004F                     _seed:
  2332     004F                     	ds	4
  2333                           
  2334                           	psect	dataBANK0
  2335     0066                     __pdataBANK0:
  2336     0066                     _mapping:
  2337     0066                     	ds	8
  2338     006E                     _snakeSize:
  2339     006E                     	ds	1
  2340                           
  2341                           	psect	bssBANK1
  2342     00A0                     __pbssBANK1:
  2343     00A0                     _DY1:
  2344     00A0                     	ds	20
  2345     00B4                     _Z1:
  2346     00B4                     	ds	20
  2347     00C8                     _Y0:
  2348     00C8                     	ds	16
  2349                           
  2350                           	psect	bssBANK2
  2351     0120                     __pbssBANK2:
  2352     0120                     _field:
  2353     0120                     	ds	64
  2354                           
  2355                           	psect	inittext
  2356     04F8                     init_ram:
  2357     04F8  00FE               	movwf	btemp
  2358     04F9                     initloop:
  2359     04F9  0012               	moviw fsr0++
  2360     04FA  001E               	movwi fsr1++
  2361     04FB  0BFE               	decfsz	btemp,f
  2362     04FC  2CF9               	goto	initloop
  2363     04FD  3400               	retlw	0
  2364                           
  2365                           	psect	clrtext
  2366     04F2                     clear_ram0:	
  2367                           ;	Called with FSR0 containing the base address, and
  2368                           ;	WREG with the size to clear
  2369                           
  2370     04F2  0064               	clrwdt	;clear the watchdog before getting into this loop
  2371     04F3                     clrloop0:
  2372     04F3  0180               	clrf	0	;clear RAM location pointed to by FSR
  2373     04F4  3101               	addfsr 0,1
  2374     04F5  0B89               	decfsz	9,f	;Have we reached the end of clearing yet?
  2375     04F6  2CF3               	goto	clrloop0	;have we reached the end yet?
  2376     04F7  3400               	retlw	0	;all done for this memory range, return
  2377                           
  2378                           	psect	cstackCOMMON
  2379     0070                     __pcstackCOMMON:
  2380     0070                     ?_EUSART_SetFramingErrorHandler:
  2381     0070                     ?_EUSART_SetOverrunErrorHandler:	
  2382                           ; 1 bytes @ 0x0
  2383                           
  2384     0070                     ?_EUSART_SetErrorHandler:	
  2385                           ; 1 bytes @ 0x0
  2386                           
  2387     0070                     ?_OSCILLATOR_Initialize:	
  2388                           ; 1 bytes @ 0x0
  2389                           
  2390     0070                     ??_OSCILLATOR_Initialize:	
  2391                           ; 1 bytes @ 0x0
  2392                           
  2393     0070                     ?_WDT_Initialize:	
  2394                           ; 1 bytes @ 0x0
  2395                           
  2396     0070                     ??_WDT_Initialize:	
  2397                           ; 1 bytes @ 0x0
  2398                           
  2399     0070                     ?_snake_initiate:	
  2400                           ; 1 bytes @ 0x0
  2401                           
  2402     0070                     ?_initMAX7219:	
  2403                           ; 1 bytes @ 0x0
  2404                           
  2405     0070                     ?_snake_getField:	
  2406                           ; 1 bytes @ 0x0
  2407                           
  2408     0070                     ??_snake_getField:	
  2409                           ; 1 bytes @ 0x0
  2410                           
  2411     0070                     ?_snake_move:	
  2412                           ; 1 bytes @ 0x0
  2413                           
  2414     0070                     ?_ledSet:	
  2415                           ; 1 bytes @ 0x0
  2416                           
  2417     0070                     ?_ledClear:	
  2418                           ; 1 bytes @ 0x0
  2419                           
  2420     0070                     ?_snake_getFoodPosition:	
  2421                           ; 1 bytes @ 0x0
  2422                           
  2423     0070                     ??_snake_getFoodPosition:	
  2424                           ; 1 bytes @ 0x0
  2425                           
  2426     0070                     ?_sendMatrix:	
  2427                           ; 1 bytes @ 0x0
  2428                           
  2429     0070                     ?_EUSART_Initialize:	
  2430                           ; 1 bytes @ 0x0
  2431                           
  2432     0070                     ?_PIN_MANAGER_Initialize:	
  2433                           ; 1 bytes @ 0x0
  2434                           
  2435     0070                     ??_PIN_MANAGER_Initialize:	
  2436                           ; 1 bytes @ 0x0
  2437                           
  2438     0070                     ?_SPI1_Initialize:	
  2439                           ; 1 bytes @ 0x0
  2440                           
  2441     0070                     ??_SPI1_Initialize:	
  2442                           ; 1 bytes @ 0x0
  2443                           
  2444     0070                     ?_SPI1_WriteByte:	
  2445                           ; 1 bytes @ 0x0
  2446                           
  2447     0070                     ??_SPI1_WriteByte:	
  2448                           ; 1 bytes @ 0x0
  2449                           
  2450     0070                     ?_SYSTEM_Initialize:	
  2451                           ; 1 bytes @ 0x0
  2452                           
  2453     0070                     ?_deactivateElevator:	
  2454                           ; 1 bytes @ 0x0
  2455                           
  2456     0070                     ??_deactivateElevator:	
  2457                           ; 1 bytes @ 0x0
  2458                           
  2459     0070                     ?_main:	
  2460                           ; 1 bytes @ 0x0
  2461                           
  2462     0070                     ?___lmul:	
  2463                           ; 1 bytes @ 0x0
  2464                           
  2465     0070                     SPI1_WriteByte@byte:	
  2466                           ; 4 bytes @ 0x0
  2467                           
  2468     0070                     ledSet@c:	
  2469                           ; 1 bytes @ 0x0
  2470                           
  2471     0070                     ledClear@c:	
  2472                           ; 1 bytes @ 0x0
  2473                           
  2474     0070                     EUSART_SetFramingErrorHandler@interruptHandler:	
  2475                           ; 1 bytes @ 0x0
  2476                           
  2477     0070                     EUSART_SetOverrunErrorHandler@interruptHandler:	
  2478                           ; 2 bytes @ 0x0
  2479                           
  2480     0070                     EUSART_SetErrorHandler@interruptHandler:	
  2481                           ; 2 bytes @ 0x0
  2482                           
  2483     0070                     ___lmul@multiplier:	
  2484                           ; 2 bytes @ 0x0
  2485                           
  2486                           
  2487                           ; 4 bytes @ 0x0
  2488     0070                     	ds	1
  2489     0071                     ??_ledSet:
  2490     0071                     ??_ledClear:	
  2491                           ; 1 bytes @ 0x1
  2492                           
  2493     0071                     ?_txMAX7219:	
  2494                           ; 1 bytes @ 0x1
  2495                           
  2496     0071                     txMAX7219@dat0:	
  2497                           ; 1 bytes @ 0x1
  2498                           
  2499                           
  2500                           ; 1 bytes @ 0x1
  2501     0071                     	ds	1
  2502     0072                     ??_EUSART_SetFramingErrorHandler:
  2503     0072                     ??_EUSART_SetOverrunErrorHandler:	
  2504                           ; 1 bytes @ 0x2
  2505                           
  2506     0072                     ??_EUSART_SetErrorHandler:	
  2507                           ; 1 bytes @ 0x2
  2508                           
  2509     0072                     ??_EUSART_Initialize:	
  2510                           ; 1 bytes @ 0x2
  2511                           
  2512     0072                     ??_SYSTEM_Initialize:	
  2513                           ; 1 bytes @ 0x2
  2514                           
  2515     0072                     ??_txMAX7219:	
  2516                           ; 1 bytes @ 0x2
  2517                           
  2518     0072                     txMAX7219@addr0:	
  2519                           ; 1 bytes @ 0x2
  2520                           
  2521                           
  2522                           ; 1 bytes @ 0x2
  2523     0072                     	ds	1
  2524     0073                     ??_initMAX7219:
  2525     0073                     ??_sendMatrix:	
  2526                           ; 1 bytes @ 0x3
  2527                           
  2528     0073                     ledSet@l:	
  2529                           ; 1 bytes @ 0x3
  2530                           
  2531     0073                     ledClear@l:	
  2532                           ; 1 bytes @ 0x3
  2533                           
  2534                           
  2535                           ; 1 bytes @ 0x3
  2536     0073                     	ds	1
  2537     0074                     sendMatrix@b:
  2538     0074                     ___lmul@multiplicand:	
  2539                           ; 1 bytes @ 0x4
  2540                           
  2541                           
  2542                           ; 4 bytes @ 0x4
  2543     0074                     	ds	1
  2544     0075                     sendMatrix@nb:
  2545                           
  2546                           ; 1 bytes @ 0x5
  2547     0075                     	ds	1
  2548     0076                     sendMatrix@j:
  2549                           
  2550                           ; 1 bytes @ 0x6
  2551     0076                     	ds	1
  2552     0077                     sendMatrix@i:
  2553                           
  2554                           ; 1 bytes @ 0x7
  2555     0077                     	ds	1
  2556     0078                     ??___lmul:
  2557     0078                     ___lmul@product:	
  2558                           ; 1 bytes @ 0x8
  2559                           
  2560                           
  2561                           ; 4 bytes @ 0x8
  2562     0078                     	ds	4
  2563     007C                     ?_rand:
  2564                           
  2565                           ; 2 bytes @ 0xC
  2566     007C                     	ds	2
  2567                           
  2568                           	psect	cstackBANK0
  2569     0053                     __pcstackBANK0:
  2570     0053                     ??_rand:
  2571                           
  2572                           ; 1 bytes @ 0x0
  2573     0053                     	ds	4
  2574     0057                     ??_snake_initiate:
  2575                           
  2576                           ; 1 bytes @ 0x4
  2577     0057                     	ds	1
  2578     0058                     snake_initiate@i:
  2579                           
  2580                           ; 1 bytes @ 0x5
  2581     0058                     	ds	1
  2582     0059                     ??_snake_move:
  2583                           
  2584                           ; 1 bytes @ 0x6
  2585     0059                     	ds	2
  2586     005B                     snake_move@direction:
  2587                           
  2588                           ; 1 bytes @ 0x8
  2589     005B                     	ds	1
  2590     005C                     snake_move@incentive:
  2591                           
  2592                           ; 1 bytes @ 0x9
  2593     005C                     	ds	1
  2594     005D                     snake_move@i:
  2595                           
  2596                           ; 1 bytes @ 0xA
  2597     005D                     	ds	1
  2598     005E                     ??_main:
  2599                           
  2600                           ; 1 bytes @ 0xB
  2601     005E                     	ds	3
  2602     0061                     main@field:
  2603                           
  2604                           ; 1 bytes @ 0xE
  2605     0061                     	ds	1
  2606     0062                     main@foodPosition:
  2607                           
  2608                           ; 1 bytes @ 0xF
  2609     0062                     	ds	1
  2610     0063                     main@d:
  2611                           
  2612                           ; 1 bytes @ 0x10
  2613     0063                     	ds	1
  2614     0064                     main@i:
  2615                           
  2616                           ; 1 bytes @ 0x11
  2617     0064                     	ds	1
  2618     0065                     main@j:
  2619                           
  2620                           ; 1 bytes @ 0x12
  2621     0065                     	ds	1
  2622                           
  2623                           	psect	maintext
  2624     06AA                     __pmaintext:	
  2625 ;;
  2626 ;;Main: autosize = 0, tempsize = 3, incstack = 0, save=0
  2627 ;;
  2628 ;; *************** function _main *****************
  2629 ;; Defined at:
  2630 ;;		line 67 in file "main.c"
  2631 ;; Parameters:    Size  Location     Type
  2632 ;;		None
  2633 ;; Auto vars:     Size  Location     Type
  2634 ;;  j               1   18[BANK0 ] unsigned char 
  2635 ;;  i               1   17[BANK0 ] unsigned char 
  2636 ;;  foodPosition    1   15[BANK0 ] unsigned char 
  2637 ;;  d               1   16[BANK0 ] unsigned char 
  2638 ;;  field           1   14[BANK0 ] PTR unsigned char 
  2639 ;;		 -> field(64), 
  2640 ;; Return value:  Size  Location     Type
  2641 ;;                  1    wreg      void 
  2642 ;; Registers used:
  2643 ;;		wreg, fsr0l, fsr0h, fsr1l, fsr1h, status,2, status,0, pclath, cstack
  2644 ;; Tracked objects:
  2645 ;;		On entry : B1F/0
  2646 ;;		On exit  : 0/0
  2647 ;;		Unchanged: 0/0
  2648 ;; Data sizes:     COMMON   BANK0   BANK1   BANK2   BANK3   BANK4
  2649 ;;      Params:         0       0       0       0       0       0
  2650 ;;      Locals:         0       5       0       0       0       0
  2651 ;;      Temps:          0       3       0       0       0       0
  2652 ;;      Totals:         0       8       0       0       0       0
  2653 ;;Total ram usage:        8 bytes
  2654 ;; Hardware stack levels required when called: 4
  2655 ;; This function calls:
  2656 ;;		_SYSTEM_Initialize
  2657 ;;		_deactivateElevator
  2658 ;;		_initMAX7219
  2659 ;;		_ledClear
  2660 ;;		_ledSet
  2661 ;;		_sendMatrix
  2662 ;;		_snake_getField
  2663 ;;		_snake_getFoodPosition
  2664 ;;		_snake_initiate
  2665 ;;		_snake_move
  2666 ;; This function is called by:
  2667 ;;		Startup code after reset
  2668 ;; This function uses a non-reentrant model
  2669 ;;
  2670                           
  2671     06AA                     _main:	
  2672                           ;psect for function _main
  2673                           
  2674     06AA                     l2334:	
  2675                           ;incstack = 0
  2676                           ; Regs used in _main: [wreg-fsr1h+status,2+status,0+pclath+cstack]
  2677                           
  2678                           
  2679                           ;main.c: 70:     SYSTEM_Initialize();
  2680     06AA  3185  2527  3186   	fcall	_SYSTEM_Initialize
  2681     06AD                     l2336:
  2682                           
  2683                           ;main.c: 87:     deactivateElevator();
  2684     06AD  3185  251A  3186   	fcall	_deactivateElevator
  2685     06B0                     l2338:
  2686                           
  2687                           ;main.c: 88:     snake_initiate();
  2688     06B0  3185  25AE  3186   	fcall	_snake_initiate
  2689     06B3                     l2340:
  2690                           
  2691                           ;main.c: 90:     initMAX7219();
  2692     06B3  3186  266C  3186   	fcall	_initMAX7219
  2693     06B6                     l2342:
  2694                           
  2695                           ;main.c: 92:     uint8_t* field = snake_getField();
  2696     06B6  3184  24D2  3186   	fcall	_snake_getField
  2697     06B9  0020               	movlb	0	; select bank0
  2698     06BA  00E1               	movwf	main@field
  2699     06BB                     l2344:
  2700                           
  2701                           ;main.c: 94:     uint8_t d = 0;
  2702     06BB  01E3               	clrf	main@d
  2703     06BC                     l2346:
  2704                           
  2705                           ;main.c: 97:         _delay((unsigned long)((500)*(8000000/4000.0)));
  2706     06BC  3006               	movlw	6
  2707     06BD  0020               	movlb	0	; select bank0
  2708     06BE  00DF               	movwf	??_main+1
  2709     06BF  3013               	movlw	19
  2710     06C0  00DE               	movwf	??_main
  2711     06C1  30AD               	movlw	173
  2712     06C2                     u1487:
  2713     06C2  0B89               	decfsz	9,f
  2714     06C3  2EC2               	goto	u1487
  2715     06C4  0BDE               	decfsz	??_main,f
  2716     06C5  2EC2               	goto	u1487
  2717     06C6  0BDF               	decfsz	??_main+1,f
  2718     06C7  2EC2               	goto	u1487
  2719     06C8  3200               	nop2
  2720     06C9                     l2348:
  2721                           
  2722                           ;main.c: 98:         snake_move(d++);
  2723     06C9  0020               	movlb	0	; select bank0
  2724     06CA  0863               	movf	main@d,w
  2725     06CB  3187  272C  3186   	fcall	_snake_move
  2726     06CE                     l2350:
  2727     06CE  3001               	movlw	1
  2728     06CF  0020               	movlb	0	; select bank0
  2729     06D0  00DE               	movwf	??_main
  2730     06D1  085E               	movf	??_main,w
  2731     06D2  07E3               	addwf	main@d,f
  2732     06D3                     l2352:
  2733                           
  2734                           ;main.c: 99:         if(d == 4){
  2735     06D3  3004               	movlw	4
  2736     06D4  0663               	xorwf	main@d,w
  2737     06D5  1D03               	btfss	3,2
  2738     06D6  2ED8               	goto	u1011
  2739     06D7  2ED9               	goto	u1010
  2740     06D8                     u1011:
  2741     06D8  2EDA               	goto	l307
  2742     06D9                     u1010:
  2743     06D9                     l2354:
  2744                           
  2745                           ;main.c: 100:             d = 0;
  2746     06D9  01E3               	clrf	main@d
  2747     06DA                     l307:	
  2748                           ;main.c: 101:         }
  2749                           
  2750                           
  2751                           ;main.c: 102:         for(uint8_t i = 0; i < 8; i++){
  2752     06DA  01E4               	clrf	main@i
  2753     06DB                     l2360:
  2754                           
  2755                           ;main.c: 103:             for(uint8_t j = 0; j < 8; j++){
  2756     06DB  01E5               	clrf	main@j
  2757     06DC                     l2366:
  2758                           
  2759                           ;main.c: 104:                 if(field[i+j*8]>0){
  2760     06DC  0865               	movf	main@j,w
  2761     06DD  00DE               	movwf	??_main
  2762     06DE  3002               	movlw	2
  2763     06DF                     u1025:
  2764     06DF  35DE               	lslf	??_main,f
  2765     06E0  3EFF               	addlw	-1
  2766     06E1  1D03               	skipz
  2767     06E2  2EDF               	goto	u1025
  2768     06E3  355E               	lslf	??_main,w
  2769     06E4  0761               	addwf	main@field,w
  2770     06E5  00DF               	movwf	??_main+1
  2771     06E6  0864               	movf	main@i,w
  2772     06E7  075F               	addwf	??_main+1,w
  2773     06E8  00E0               	movwf	??_main+2
  2774     06E9  0860               	movf	??_main+2,w
  2775     06EA  0086               	movwf	6
  2776     06EB  3001               	movlw	1	; select bank2/3
  2777     06EC  0087               	movwf	7
  2778     06ED  0801               	movf	1,w
  2779     06EE  1903               	btfsc	3,2
  2780     06EF  2EF1               	goto	u1031
  2781     06F0  2EF2               	goto	u1030
  2782     06F1                     u1031:
  2783     06F1  2EF9               	goto	l2370
  2784     06F2                     u1030:
  2785     06F2                     l2368:
  2786                           
  2787                           ;main.c: 105:                     ledSet(i,j);
  2788     06F2  0865               	movf	main@j,w
  2789     06F3  00F0               	movwf	ledSet@c
  2790     06F4  0864               	movf	main@i,w
  2791     06F5  3185  2537  3186   	fcall	_ledSet
  2792                           
  2793                           ;main.c: 106:                 } else{
  2794     06F8  2EFF               	goto	l2372
  2795     06F9                     l2370:
  2796                           
  2797                           ;main.c: 107:                     ledClear(i,j);
  2798     06F9  0865               	movf	main@j,w
  2799     06FA  00F0               	movwf	ledClear@c
  2800     06FB  0864               	movf	main@i,w
  2801     06FC  3185  2548  3186   	fcall	_ledClear
  2802     06FF                     l2372:
  2803                           
  2804                           ;main.c: 109:             }
  2805     06FF  3001               	movlw	1
  2806     0700  0020               	movlb	0	; select bank0
  2807     0701  00DE               	movwf	??_main
  2808     0702  085E               	movf	??_main,w
  2809     0703  07E5               	addwf	main@j,f
  2810     0704                     l2374:
  2811     0704  3008               	movlw	8
  2812     0705  0265               	subwf	main@j,w
  2813     0706  1C03               	skipc
  2814     0707  2F09               	goto	u1041
  2815     0708  2F0A               	goto	u1040
  2816     0709                     u1041:
  2817     0709  2EDC               	goto	l2366
  2818     070A                     u1040:
  2819     070A                     l2376:
  2820                           
  2821                           ;main.c: 110:         }
  2822     070A  3001               	movlw	1
  2823     070B  00DE               	movwf	??_main
  2824     070C  085E               	movf	??_main,w
  2825     070D  07E4               	addwf	main@i,f
  2826     070E                     l2378:
  2827     070E  3008               	movlw	8
  2828     070F  0264               	subwf	main@i,w
  2829     0710  1C03               	skipc
  2830     0711  2F13               	goto	u1051
  2831     0712  2F14               	goto	u1050
  2832     0713                     u1051:
  2833     0713  2EDB               	goto	l2360
  2834     0714                     u1050:
  2835     0714                     l2380:
  2836                           
  2837                           ;main.c: 111:         uint8_t foodPosition = snake_getFoodPosition();
  2838     0714  3184  24D4  3186   	fcall	_snake_getFoodPosition
  2839     0717  0020               	movlb	0	; select bank0
  2840     0718  00E2               	movwf	main@foodPosition
  2841     0719                     l2382:
  2842                           
  2843                           ;main.c: 112:         ledSet(foodPosition&0x03, foodPosition>>3);
  2844     0719  0862               	movf	main@foodPosition,w
  2845     071A  00DE               	movwf	??_main
  2846     071B  3003               	movlw	3
  2847     071C                     u1065:
  2848     071C  36DE               	lsrf	??_main,f
  2849     071D  0B89               	decfsz	9,f
  2850     071E  2F1C               	goto	u1065
  2851     071F  085E               	movf	??_main,w
  2852     0720  00F0               	movwf	ledSet@c
  2853     0721  0862               	movf	main@foodPosition,w
  2854     0722  3903               	andlw	3
  2855     0723  3185  2537  3186   	fcall	_ledSet
  2856     0726                     l2384:
  2857                           
  2858                           ;main.c: 113:         sendMatrix();
  2859     0726  3185  25D6  3186   	fcall	_sendMatrix
  2860     0729  2EBC               	goto	l2346
  2861     072A  3180  2802         	ljmp	start
  2862     072C                     __end_of_main:
  2863                           
  2864                           	psect	text1
  2865     072C                     __ptext1:	
  2866 ;; *************** function _snake_move *****************
  2867 ;; Defined at:
  2868 ;;		line 26 in file "snake.c"
  2869 ;; Parameters:    Size  Location     Type
  2870 ;;  direction       1    wreg     unsigned char 
  2871 ;; Auto vars:     Size  Location     Type
  2872 ;;  direction       1    8[BANK0 ] unsigned char 
  2873 ;;  i               1   10[BANK0 ] unsigned char 
  2874 ;;  incentive       1    9[BANK0 ] char 
  2875 ;; Return value:  Size  Location     Type
  2876 ;;                  1    wreg      char 
  2877 ;; Registers used:
  2878 ;;		wreg, fsr0l, fsr0h, fsr1l, fsr1h, status,2, status,0, pclath, cstack
  2879 ;; Tracked objects:
  2880 ;;		On entry : 0/0
  2881 ;;		On exit  : 0/0
  2882 ;;		Unchanged: 0/0
  2883 ;; Data sizes:     COMMON   BANK0   BANK1   BANK2   BANK3   BANK4
  2884 ;;      Params:         0       0       0       0       0       0
  2885 ;;      Locals:         0       3       0       0       0       0
  2886 ;;      Temps:          0       2       0       0       0       0
  2887 ;;      Totals:         0       5       0       0       0       0
  2888 ;;Total ram usage:        5 bytes
  2889 ;; Hardware stack levels used: 1
  2890 ;; Hardware stack levels required when called: 3
  2891 ;; This function calls:
  2892 ;;		_rand
  2893 ;;		_snake_initiate
  2894 ;; This function is called by:
  2895 ;;		_main
  2896 ;; This function uses a non-reentrant model
  2897 ;;
  2898                           
  2899     072C                     _snake_move:	
  2900                           ;psect for function _snake_move
  2901                           
  2902                           
  2903                           ;incstack = 0
  2904                           ; Regs used in _snake_move: [wreg-fsr1h+status,2+status,0+pclath+cstack]
  2905                           ;snake_move@direction stored from wreg
  2906     072C  0020               	movlb	0	; select bank0
  2907     072D  00DB               	movwf	snake_move@direction
  2908     072E                     l2172:
  2909                           
  2910                           ;snake.c: 27:     for(uint8_t i = 0; i < 64; i++){
  2911     072E  01DD               	clrf	snake_move@i
  2912     072F                     l2178:
  2913                           
  2914                           ;snake.c: 28:         if(field[i] > 0){
  2915     072F  085D               	movf	snake_move@i,w
  2916     0730  3E20               	addlw	(low (_field| (0+256)))& (0+255)
  2917     0731  0086               	movwf	6
  2918     0732  3001               	movlw	1	; select bank2/3
  2919     0733  0087               	movwf	7
  2920     0734  0801               	movf	1,w
  2921     0735  1903               	btfsc	3,2
  2922     0736  2F38               	goto	u801
  2923     0737  2F39               	goto	u800
  2924     0738                     u801:
  2925     0738  2F40               	goto	l2182
  2926     0739                     u800:
  2927     0739                     l2180:
  2928                           
  2929                           ;snake.c: 29:             field[i]--;
  2930     0739  085D               	movf	snake_move@i,w
  2931     073A  3E20               	addlw	(low (_field| (0+256)))& (0+255)
  2932     073B  0086               	movwf	6
  2933     073C  3001               	movlw	1	; select bank2/3
  2934     073D  0087               	movwf	7
  2935     073E  3001               	movlw	1
  2936     073F  0281               	subwf	1,f
  2937     0740                     l2182:
  2938                           
  2939                           ;snake.c: 31:     }
  2940     0740  3001               	movlw	1
  2941     0741  00D9               	movwf	??_snake_move
  2942     0742  0859               	movf	??_snake_move,w
  2943     0743  07DD               	addwf	snake_move@i,f
  2944     0744                     l2184:
  2945     0744  3040               	movlw	64
  2946     0745  025D               	subwf	snake_move@i,w
  2947     0746  1C03               	skipc
  2948     0747  2F49               	goto	u811
  2949     0748  2F4A               	goto	u810
  2950     0749                     u811:
  2951     0749  2F2F               	goto	l2178
  2952     074A                     u810:
  2953     074A                     l2186:
  2954                           
  2955                           ;snake.c: 32:     int8_t incentive = 0;
  2956     074A  01DC               	clrf	snake_move@incentive
  2957     074B                     l2188:
  2958                           
  2959                           ;snake.c: 33:     direction &= 0x03;
  2960     074B  3003               	movlw	3
  2961     074C  00D9               	movwf	??_snake_move
  2962     074D  0859               	movf	??_snake_move,w
  2963     074E  05DB               	andwf	snake_move@direction,f
  2964                           
  2965                           ;snake.c: 34:     switch(direction){
  2966     074F  2F8C               	goto	l2216
  2967     0750                     l2190:
  2968                           
  2969                           ;snake.c: 36:             if((headPosition&0x03) == 0){
  2970     0750  0848               	movf	_headPosition,w
  2971     0751  3903               	andlw	3
  2972     0752  1D03               	btfss	3,2
  2973     0753  2F55               	goto	u821
  2974     0754  2F56               	goto	u820
  2975     0755                     u821:
  2976     0755  2F59               	goto	l2194
  2977     0756                     u820:
  2978     0756                     l2192:
  2979                           
  2980                           ;snake.c: 37:                 incentive = -1;
  2981     0756  01DC               	clrf	snake_move@incentive
  2982     0757  03DC               	decf	snake_move@incentive,f
  2983                           
  2984                           ;snake.c: 38:             } else{
  2985     0758  2FA2               	goto	l2218
  2986     0759                     l2194:
  2987                           
  2988                           ;snake.c: 39:                 headPosition--;
  2989     0759  3001               	movlw	1
  2990     075A  02C8               	subwf	_headPosition,f
  2991     075B  2FA2               	goto	l2218
  2992     075C                     l2196:
  2993                           
  2994                           ;snake.c: 43:             if((headPosition&0x03) == 7){
  2995     075C  3003               	movlw	3
  2996     075D  0548               	andwf	_headPosition,w
  2997     075E  00D9               	movwf	??_snake_move
  2998     075F  3007               	movlw	7
  2999     0760  0659               	xorwf	??_snake_move,w
  3000     0761  1D03               	btfss	3,2
  3001     0762  2F64               	goto	u831
  3002     0763  2F65               	goto	u830
  3003     0764                     u831:
  3004     0764  2F66               	goto	l2200
  3005     0765                     u830:
  3006     0765  2F56               	goto	l2192
  3007     0766                     l2200:
  3008                           
  3009                           ;snake.c: 46:                 headPosition++;
  3010     0766  3001               	movlw	1
  3011     0767  00D9               	movwf	??_snake_move
  3012     0768  0859               	movf	??_snake_move,w
  3013     0769  07C8               	addwf	_headPosition,f
  3014     076A  2FA2               	goto	l2218
  3015     076B                     l2202:
  3016                           
  3017                           ;snake.c: 50:             if((headPosition>>3) == 7){
  3018     076B  0848               	movf	_headPosition,w
  3019     076C  00D9               	movwf	??_snake_move
  3020     076D  3003               	movlw	3
  3021     076E                     u845:
  3022     076E  36D9               	lsrf	??_snake_move,f
  3023     076F  0B89               	decfsz	9,f
  3024     0770  2F6E               	goto	u845
  3025     0771  3007               	movlw	7
  3026     0772  0659               	xorwf	??_snake_move,w
  3027     0773  1D03               	btfss	3,2
  3028     0774  2F76               	goto	u851
  3029     0775  2F77               	goto	u850
  3030     0776                     u851:
  3031     0776  2F78               	goto	l2206
  3032     0777                     u850:
  3033     0777  2F56               	goto	l2192
  3034     0778                     l2206:
  3035                           
  3036                           ;snake.c: 53:                 headPosition -= 8;
  3037     0778  3008               	movlw	8
  3038     0779  02C8               	subwf	_headPosition,f
  3039     077A  2FA2               	goto	l2218
  3040     077B                     l2208:
  3041                           
  3042                           ;snake.c: 57:             if((headPosition>>3) == 0){
  3043     077B  0848               	movf	_headPosition,w
  3044     077C  00D9               	movwf	??_snake_move
  3045     077D  3003               	movlw	3
  3046     077E                     u865:
  3047     077E  36D9               	lsrf	??_snake_move,f
  3048     077F  0B89               	decfsz	9,f
  3049     0780  2F7E               	goto	u865
  3050     0781  0859               	movf	??_snake_move,w
  3051     0782  1D03               	btfss	3,2
  3052     0783  2F85               	goto	u871
  3053     0784  2F86               	goto	u870
  3054     0785                     u871:
  3055     0785  2F87               	goto	l2212
  3056     0786                     u870:
  3057     0786  2F56               	goto	l2192
  3058     0787                     l2212:
  3059                           
  3060                           ;snake.c: 60:                 headPosition += 8;
  3061     0787  3008               	movlw	8
  3062     0788  00D9               	movwf	??_snake_move
  3063     0789  0859               	movf	??_snake_move,w
  3064     078A  07C8               	addwf	_headPosition,f
  3065     078B  2FA2               	goto	l2218
  3066     078C                     l2216:
  3067     078C  085B               	movf	snake_move@direction,w
  3068     078D  00D9               	movwf	??_snake_move
  3069     078E  01DA               	clrf	??_snake_move+1
  3070                           
  3071                           ; Switch on 2 bytes has been partitioned into a top level switch of size 1, and 1 sub-sw
      +                          itches
  3072                           ; Switch size 1, requested type "simple"
  3073                           ; Number of cases is 1, Range of values is 0 to 0
  3074                           ; switch strategies available:
  3075                           ; Name         Instructions Cycles
  3076                           ; simple_byte            4     3 (average)
  3077                           ; direct_byte            8     6 (fixed)
  3078                           ; jumptable            260     6 (fixed)
  3079                           ;	Chosen strategy is simple_byte
  3080     078F  085A               	movf	??_snake_move+1,w
  3081     0790  3A00               	xorlw	0	; case 0
  3082     0791  1903               	skipnz
  3083     0792  2F94               	goto	l2756
  3084     0793  2FA2               	goto	l2218
  3085     0794                     l2756:
  3086                           
  3087                           ; Switch size 1, requested type "simple"
  3088                           ; Number of cases is 4, Range of values is 0 to 3
  3089                           ; switch strategies available:
  3090                           ; Name         Instructions Cycles
  3091                           ; simple_byte           13     7 (average)
  3092                           ; direct_byte           14     6 (fixed)
  3093                           ; jumptable            260     6 (fixed)
  3094                           ;	Chosen strategy is simple_byte
  3095     0794  0859               	movf	??_snake_move,w
  3096     0795  3A00               	xorlw	0	; case 0
  3097     0796  1903               	skipnz
  3098     0797  2F50               	goto	l2190
  3099     0798  3A01               	xorlw	1	; case 1
  3100     0799  1903               	skipnz
  3101     079A  2F5C               	goto	l2196
  3102     079B  3A03               	xorlw	3	; case 2
  3103     079C  1903               	skipnz
  3104     079D  2F6B               	goto	l2202
  3105     079E  3A01               	xorlw	1	; case 3
  3106     079F  1903               	skipnz
  3107     07A0  2F7B               	goto	l2208
  3108     07A1  2FA2               	goto	l2218
  3109     07A2                     l2218:
  3110                           
  3111                           ;snake.c: 64:     if(incentive == -1){
  3112     07A2  0A5C               	incf	snake_move@incentive,w
  3113     07A3  1D03               	btfss	3,2
  3114     07A4  2FA6               	goto	u881
  3115     07A5  2FA7               	goto	u880
  3116     07A6                     u881:
  3117     07A6  2FAB               	goto	l2222
  3118     07A7                     u880:
  3119     07A7                     l2220:
  3120                           
  3121                           ;snake.c: 65:         snake_initiate();
  3122     07A7  3185  25AE  3187   	fcall	_snake_initiate
  3123                           
  3124                           ;snake.c: 66:     } else if(field[headPosition] > 0){
  3125     07AA  2FD8               	goto	l407
  3126     07AB                     l2222:
  3127     07AB  0848               	movf	_headPosition,w
  3128     07AC  3E20               	addlw	(low (_field| (0+256)))& (0+255)
  3129     07AD  0086               	movwf	6
  3130     07AE  3001               	movlw	1	; select bank2/3
  3131     07AF  0087               	movwf	7
  3132     07B0  0801               	movf	1,w
  3133     07B1  1903               	btfsc	3,2
  3134     07B2  2FB4               	goto	u891
  3135     07B3  2FB5               	goto	u890
  3136     07B4                     u891:
  3137     07B4  2FB6               	goto	l2228
  3138     07B5                     u890:
  3139     07B5                     l2224:
  3140     07B5  2FA7               	goto	l2220
  3141     07B6                     l2228:
  3142                           
  3143                           ;snake.c: 70:         if(headPosition == foodPosition){
  3144     07B6  0848               	movf	_headPosition,w
  3145     07B7  0647               	xorwf	_foodPosition,w
  3146     07B8  1D03               	skipz
  3147     07B9  2FBB               	goto	u901
  3148     07BA  2FBC               	goto	u900
  3149     07BB                     u901:
  3150     07BB  2FD1               	goto	l2238
  3151     07BC                     u900:
  3152     07BC                     l2230:
  3153     07BC                     l2232:
  3154                           
  3155                           ;snake.c: 72:             snakeSize++;
  3156     07BC  3001               	movlw	1
  3157     07BD  00D9               	movwf	??_snake_move
  3158     07BE  0859               	movf	??_snake_move,w
  3159     07BF  07EE               	addwf	_snakeSize,f
  3160     07C0                     l2234:
  3161                           
  3162                           ;snake.c: 74:                 foodPosition = ((uint8_t)rand())&0x1f;
  3163     07C0  3186  2637  3187   	fcall	_rand
  3164     07C3  087C               	movf	?_rand,w
  3165     07C4  391F               	andlw	31
  3166     07C5  0020               	movlb	0	; select bank0
  3167     07C6  00C7               	movwf	_foodPosition
  3168     07C7                     l2236:
  3169                           
  3170                           ;snake.c: 75:             }while(field[foodPosition] > 0);
  3171     07C7  0847               	movf	_foodPosition,w
  3172     07C8  3E20               	addlw	(low (_field| (0+256)))& (0+255)
  3173     07C9  0086               	movwf	6
  3174     07CA  3001               	movlw	1	; select bank2/3
  3175     07CB  0087               	movwf	7
  3176     07CC  0801               	movf	1,w
  3177     07CD  1D03               	btfss	3,2
  3178     07CE  2FD0               	goto	u911
  3179     07CF  2FD1               	goto	u910
  3180     07D0                     u911:
  3181     07D0  2FC0               	goto	l2234
  3182     07D1                     u910:
  3183     07D1                     l2238:
  3184                           
  3185                           ;snake.c: 77:         field[headPosition] = snakeSize;
  3186     07D1  0848               	movf	_headPosition,w
  3187     07D2  3E20               	addlw	(low (_field| (0+256)))& (0+255)
  3188     07D3  0086               	movwf	6
  3189     07D4  3001               	movlw	1	; select bank2/3
  3190     07D5  0087               	movwf	7
  3191     07D6  086E               	movf	_snakeSize,w
  3192     07D7  0081               	movwf	1
  3193     07D8                     l407:
  3194     07D8  0008               	return
  3195     07D9                     __end_of_snake_move:
  3196                           
  3197                           	psect	text2
  3198     05AE                     __ptext2:	
  3199 ;; *************** function _snake_initiate *****************
  3200 ;; Defined at:
  3201 ;;		line 17 in file "snake.c"
  3202 ;; Parameters:    Size  Location     Type
  3203 ;;		None
  3204 ;; Auto vars:     Size  Location     Type
  3205 ;;  i               1    5[BANK0 ] unsigned char 
  3206 ;; Return value:  Size  Location     Type
  3207 ;;                  1    wreg      void 
  3208 ;; Registers used:
  3209 ;;		wreg, fsr1l, fsr1h, status,2, status,0, pclath, cstack
  3210 ;; Tracked objects:
  3211 ;;		On entry : 0/0
  3212 ;;		On exit  : 0/0
  3213 ;;		Unchanged: 0/0
  3214 ;; Data sizes:     COMMON   BANK0   BANK1   BANK2   BANK3   BANK4
  3215 ;;      Params:         0       0       0       0       0       0
  3216 ;;      Locals:         0       1       0       0       0       0
  3217 ;;      Temps:          0       1       0       0       0       0
  3218 ;;      Totals:         0       2       0       0       0       0
  3219 ;;Total ram usage:        2 bytes
  3220 ;; Hardware stack levels used: 1
  3221 ;; Hardware stack levels required when called: 2
  3222 ;; This function calls:
  3223 ;;		_rand
  3224 ;; This function is called by:
  3225 ;;		_main
  3226 ;;		_snake_move
  3227 ;; This function uses a non-reentrant model
  3228 ;;
  3229                           
  3230     05AE                     _snake_initiate:	
  3231                           ;psect for function _snake_initiate
  3232                           
  3233     05AE                     l2132:	
  3234                           ;incstack = 0
  3235                           ; Regs used in _snake_initiate: [wreg+fsr1l+fsr1h+status,2+status,0+pclath+cstack]
  3236                           
  3237                           
  3238                           ;snake.c: 18:     for(uint8_t i = 0; i < 64; i++){
  3239     05AE  0020               	movlb	0	; select bank0
  3240     05AF  01D8               	clrf	snake_initiate@i
  3241     05B0                     l2138:
  3242                           
  3243                           ;snake.c: 19:         field[i] = 0;
  3244     05B0  0858               	movf	snake_initiate@i,w
  3245     05B1  3E20               	addlw	(low (_field| (0+256)))& (0+255)
  3246     05B2  0086               	movwf	6
  3247     05B3  3001               	movlw	1	; select bank2/3
  3248     05B4  0087               	movwf	7
  3249     05B5  0181               	clrf	1
  3250     05B6                     l2140:
  3251                           
  3252                           ;snake.c: 20:     }
  3253     05B6  3001               	movlw	1
  3254     05B7  00D7               	movwf	??_snake_initiate
  3255     05B8  0857               	movf	??_snake_initiate,w
  3256     05B9  07D8               	addwf	snake_initiate@i,f
  3257     05BA                     l2142:
  3258     05BA  3040               	movlw	64
  3259     05BB  0258               	subwf	snake_initiate@i,w
  3260     05BC  1C03               	skipc
  3261     05BD  2DBF               	goto	u771
  3262     05BE  2DC0               	goto	u770
  3263     05BF                     u771:
  3264     05BF  2DB0               	goto	l2138
  3265     05C0                     u770:
  3266     05C0                     l2144:
  3267                           
  3268                           ;snake.c: 21:     headPosition = ((uint8_t)rand())&0x3f;
  3269     05C0  3186  2637  3185   	fcall	_rand
  3270     05C3  087C               	movf	?_rand,w
  3271     05C4  393F               	andlw	63
  3272     05C5  0020               	movlb	0	; select bank0
  3273     05C6  00C8               	movwf	_headPosition
  3274                           
  3275                           ;snake.c: 22:     foodPosition = ((uint8_t)rand())&0x3f;
  3276     05C7  3186  2637  3185   	fcall	_rand
  3277     05CA  087C               	movf	?_rand,w
  3278     05CB  393F               	andlw	63
  3279     05CC  0020               	movlb	0	; select bank0
  3280     05CD  00C7               	movwf	_foodPosition
  3281     05CE                     l2146:
  3282                           
  3283                           ;snake.c: 23:     field[headPosition] = snakeSize;
  3284     05CE  0848               	movf	_headPosition,w
  3285     05CF  3E20               	addlw	(low (_field| (0+256)))& (0+255)
  3286     05D0  0086               	movwf	6
  3287     05D1  3001               	movlw	1	; select bank2/3
  3288     05D2  0087               	movwf	7
  3289     05D3  086E               	movf	_snakeSize,w
  3290     05D4  0081               	movwf	1
  3291     05D5                     l380:
  3292     05D5  0008               	return
  3293     05D6                     __end_of_snake_initiate:
  3294                           
  3295                           	psect	text3
  3296     0637                     __ptext3:	
  3297 ;; *************** function _rand *****************
  3298 ;; Defined at:
  3299 ;;		line 11 in file "D:\ProgramData\Microchip\xc8\v2.40\pic\sources\c99\common\rand.c"
  3300 ;; Parameters:    Size  Location     Type
  3301 ;;		None
  3302 ;; Auto vars:     Size  Location     Type
  3303 ;;		None
  3304 ;; Return value:  Size  Location     Type
  3305 ;;                  2   12[COMMON] int 
  3306 ;; Registers used:
  3307 ;;		wreg, status,2, status,0, pclath, cstack
  3308 ;; Tracked objects:
  3309 ;;		On entry : 0/0
  3310 ;;		On exit  : 0/0
  3311 ;;		Unchanged: 0/0
  3312 ;; Data sizes:     COMMON   BANK0   BANK1   BANK2   BANK3   BANK4
  3313 ;;      Params:         2       0       0       0       0       0
  3314 ;;      Locals:         0       0       0       0       0       0
  3315 ;;      Temps:          0       4       0       0       0       0
  3316 ;;      Totals:         2       4       0       0       0       0
  3317 ;;Total ram usage:        6 bytes
  3318 ;; Hardware stack levels used: 1
  3319 ;; Hardware stack levels required when called: 1
  3320 ;; This function calls:
  3321 ;;		___lmul
  3322 ;; This function is called by:
  3323 ;;		_snake_initiate
  3324 ;;		_snake_move
  3325 ;;		_ai_initiate
  3326 ;; This function uses a non-reentrant model
  3327 ;;
  3328                           
  3329     0637                     _rand:	
  3330                           ;psect for function _rand
  3331                           
  3332     0637                     l2084:	
  3333                           ;incstack = 0
  3334                           ; Regs used in _rand: [wreg+status,2+status,0+pclath+cstack]
  3335                           
  3336     0637  0020               	movlb	0	; select bank0
  3337     0638  0852               	movf	_seed+3,w
  3338     0639  00F3               	movwf	___lmul@multiplier+3
  3339     063A  0851               	movf	_seed+2,w
  3340     063B  00F2               	movwf	___lmul@multiplier+2
  3341     063C  0850               	movf	_seed+1,w
  3342     063D  00F1               	movwf	___lmul@multiplier+1
  3343     063E  084F               	movf	_seed,w
  3344     063F  00F0               	movwf	___lmul@multiplier
  3345     0640  304C               	movlw	76
  3346     0641  00F7               	movwf	___lmul@multiplicand+3
  3347     0642  3095               	movlw	149
  3348     0643  00F6               	movwf	___lmul@multiplicand+2
  3349     0644  307F               	movlw	127
  3350     0645  00F5               	movwf	___lmul@multiplicand+1
  3351     0646  302D               	movlw	45
  3352     0647  00F4               	movwf	___lmul@multiplicand
  3353     0648  3186  2604  3186   	fcall	___lmul
  3354     064B  3001               	movlw	1
  3355     064C  0770               	addwf	?___lmul,w
  3356     064D  0020               	movlb	0	; select bank0
  3357     064E  00CF               	movwf	_seed
  3358     064F  3000               	movlw	0
  3359     0650  3D71               	addwfc	?___lmul+1,w
  3360     0651  00D0               	movwf	_seed+1
  3361     0652  3000               	movlw	0
  3362     0653  3D72               	addwfc	?___lmul+2,w
  3363     0654  00D1               	movwf	_seed+2
  3364     0655  3000               	movlw	0
  3365     0656  3D73               	addwfc	?___lmul+3,w
  3366     0657  00D2               	movwf	_seed+3
  3367     0658                     l2086:
  3368     0658  084F               	movf	_seed,w
  3369     0659  00D3               	movwf	??_rand
  3370     065A  0850               	movf	_seed+1,w
  3371     065B  00D4               	movwf	??_rand+1
  3372     065C  0851               	movf	_seed+2,w
  3373     065D  00D5               	movwf	??_rand+2
  3374     065E  0852               	movf	_seed+3,w
  3375     065F  00D6               	movwf	??_rand+3
  3376     0660  3011               	movlw	17
  3377     0661                     u765:
  3378     0661  36D6               	lsrf	??_rand+3,f
  3379     0662  0CD5               	rrf	??_rand+2,f
  3380     0663  0CD4               	rrf	??_rand+1,f
  3381     0664  0CD3               	rrf	??_rand,f
  3382     0665                     u760:
  3383     0665  0B89               	decfsz	9,f
  3384     0666  2E61               	goto	u765
  3385     0667  0854               	movf	??_rand+1,w
  3386     0668  00FD               	movwf	?_rand+1
  3387     0669  0853               	movf	??_rand,w
  3388     066A  00FC               	movwf	?_rand
  3389     066B                     l1228:
  3390     066B  0008               	return
  3391     066C                     __end_of_rand:
  3392                           
  3393                           	psect	text4
  3394     0604                     __ptext4:	
  3395 ;; *************** function ___lmul *****************
  3396 ;; Defined at:
  3397 ;;		line 15 in file "D:\ProgramData\Microchip\xc8\v2.40\pic\sources\c99\common\Umul32.c"
  3398 ;; Parameters:    Size  Location     Type
  3399 ;;  multiplier      4    0[COMMON] unsigned long 
  3400 ;;  multiplicand    4    4[COMMON] unsigned long 
  3401 ;; Auto vars:     Size  Location     Type
  3402 ;;  product         4    8[COMMON] unsigned long 
  3403 ;; Return value:  Size  Location     Type
  3404 ;;                  4    0[COMMON] unsigned long 
  3405 ;; Registers used:
  3406 ;;		wreg, status,2, status,0
  3407 ;; Tracked objects:
  3408 ;;		On entry : 0/0
  3409 ;;		On exit  : 0/0
  3410 ;;		Unchanged: 0/0
  3411 ;; Data sizes:     COMMON   BANK0   BANK1   BANK2   BANK3   BANK4
  3412 ;;      Params:         8       0       0       0       0       0
  3413 ;;      Locals:         4       0       0       0       0       0
  3414 ;;      Temps:          0       0       0       0       0       0
  3415 ;;      Totals:        12       0       0       0       0       0
  3416 ;;Total ram usage:       12 bytes
  3417 ;; Hardware stack levels used: 1
  3418 ;; This function calls:
  3419 ;;		Nothing
  3420 ;; This function is called by:
  3421 ;;		_rand
  3422 ;; This function uses a non-reentrant model
  3423 ;;
  3424                           
  3425     0604                     ___lmul:	
  3426                           ;psect for function ___lmul
  3427                           
  3428     0604                     l2062:	
  3429                           ;incstack = 0
  3430                           ; Regs used in ___lmul: [wreg+status,2+status,0]
  3431                           
  3432     0604  3000               	movlw	0
  3433     0605  00FB               	movwf	___lmul@product+3
  3434     0606  3000               	movlw	0
  3435     0607  00FA               	movwf	___lmul@product+2
  3436     0608  3000               	movlw	0
  3437     0609  00F9               	movwf	___lmul@product+1
  3438     060A  3000               	movlw	0
  3439     060B  00F8               	movwf	___lmul@product
  3440     060C                     l2064:
  3441     060C  1C70               	btfss	___lmul@multiplier,0
  3442     060D  2E0F               	goto	u721
  3443     060E  2E10               	goto	u720
  3444     060F                     u721:
  3445     060F  2E18               	goto	l2068
  3446     0610                     u720:
  3447     0610                     l2066:
  3448     0610  0874               	movf	___lmul@multiplicand,w
  3449     0611  07F8               	addwf	___lmul@product,f
  3450     0612  0875               	movf	___lmul@multiplicand+1,w
  3451     0613  3DF9               	addwfc	___lmul@product+1,f
  3452     0614  0876               	movf	___lmul@multiplicand+2,w
  3453     0615  3DFA               	addwfc	___lmul@product+2,f
  3454     0616  0877               	movf	___lmul@multiplicand+3,w
  3455     0617  3DFB               	addwfc	___lmul@product+3,f
  3456     0618                     l2068:
  3457     0618  3001               	movlw	1
  3458     0619                     u735:
  3459     0619  35F4               	lslf	___lmul@multiplicand,f
  3460     061A  0DF5               	rlf	___lmul@multiplicand+1,f
  3461     061B  0DF6               	rlf	___lmul@multiplicand+2,f
  3462     061C  0DF7               	rlf	___lmul@multiplicand+3,f
  3463     061D  0B89               	decfsz	9,f
  3464     061E  2E19               	goto	u735
  3465     061F                     l2070:
  3466     061F  3001               	movlw	1
  3467     0620                     u745:
  3468     0620  36F3               	lsrf	___lmul@multiplier+3,f
  3469     0621  0CF2               	rrf	___lmul@multiplier+2,f
  3470     0622  0CF1               	rrf	___lmul@multiplier+1,f
  3471     0623  0CF0               	rrf	___lmul@multiplier,f
  3472     0624  0B89               	decfsz	9,f
  3473     0625  2E20               	goto	u745
  3474     0626  0873               	movf	___lmul@multiplier+3,w
  3475     0627  0472               	iorwf	___lmul@multiplier+2,w
  3476     0628  0471               	iorwf	___lmul@multiplier+1,w
  3477     0629  0470               	iorwf	___lmul@multiplier,w
  3478     062A  1D03               	skipz
  3479     062B  2E2D               	goto	u751
  3480     062C  2E2E               	goto	u750
  3481     062D                     u751:
  3482     062D  2E0C               	goto	l2064
  3483     062E                     u750:
  3484     062E                     l2072:
  3485     062E  087B               	movf	___lmul@product+3,w
  3486     062F  00F3               	movwf	?___lmul+3
  3487     0630  087A               	movf	___lmul@product+2,w
  3488     0631  00F2               	movwf	?___lmul+2
  3489     0632  0879               	movf	___lmul@product+1,w
  3490     0633  00F1               	movwf	?___lmul+1
  3491     0634  0878               	movf	___lmul@product,w
  3492     0635  00F0               	movwf	?___lmul
  3493     0636                     l778:
  3494     0636  0008               	return
  3495     0637                     __end_of___lmul:
  3496                           
  3497                           	psect	text5
  3498     04D4                     __ptext5:	
  3499 ;; *************** function _snake_getFoodPosition *****************
  3500 ;; Defined at:
  3501 ;;		line 124 in file "snake.c"
  3502 ;; Parameters:    Size  Location     Type
  3503 ;;		None
  3504 ;; Auto vars:     Size  Location     Type
  3505 ;;		None
  3506 ;; Return value:  Size  Location     Type
  3507 ;;                  1    wreg      unsigned char 
  3508 ;; Registers used:
  3509 ;;		wreg
  3510 ;; Tracked objects:
  3511 ;;		On entry : 0/0
  3512 ;;		On exit  : 0/0
  3513 ;;		Unchanged: 0/0
  3514 ;; Data sizes:     COMMON   BANK0   BANK1   BANK2   BANK3   BANK4
  3515 ;;      Params:         0       0       0       0       0       0
  3516 ;;      Locals:         0       0       0       0       0       0
  3517 ;;      Temps:          0       0       0       0       0       0
  3518 ;;      Totals:         0       0       0       0       0       0
  3519 ;;Total ram usage:        0 bytes
  3520 ;; Hardware stack levels used: 1
  3521 ;; This function calls:
  3522 ;;		Nothing
  3523 ;; This function is called by:
  3524 ;;		_main
  3525 ;; This function uses a non-reentrant model
  3526 ;;
  3527                           
  3528     04D4                     _snake_getFoodPosition:	
  3529                           ;psect for function _snake_getFoodPosition
  3530                           
  3531     04D4                     l2250:	
  3532                           ;incstack = 0
  3533                           ; Regs used in _snake_getFoodPosition: [wreg]
  3534                           
  3535                           
  3536                           ;snake.c: 125:     return foodPosition;
  3537     04D4  0020               	movlb	0	; select bank0
  3538     04D5  0847               	movf	_foodPosition,w
  3539     04D6                     l431:
  3540     04D6  0008               	return
  3541     04D7                     __end_of_snake_getFoodPosition:
  3542                           
  3543                           	psect	text6
  3544     04D2                     __ptext6:	
  3545 ;; *************** function _snake_getField *****************
  3546 ;; Defined at:
  3547 ;;		line 82 in file "snake.c"
  3548 ;; Parameters:    Size  Location     Type
  3549 ;;		None
  3550 ;; Auto vars:     Size  Location     Type
  3551 ;;		None
  3552 ;; Return value:  Size  Location     Type
  3553 ;;                  1    wreg      PTR unsigned char 
  3554 ;; Registers used:
  3555 ;;		wreg
  3556 ;; Tracked objects:
  3557 ;;		On entry : 0/0
  3558 ;;		On exit  : 0/0
  3559 ;;		Unchanged: 0/0
  3560 ;; Data sizes:     COMMON   BANK0   BANK1   BANK2   BANK3   BANK4
  3561 ;;      Params:         0       0       0       0       0       0
  3562 ;;      Locals:         0       0       0       0       0       0
  3563 ;;      Temps:          0       0       0       0       0       0
  3564 ;;      Totals:         0       0       0       0       0       0
  3565 ;;Total ram usage:        0 bytes
  3566 ;; Hardware stack levels used: 1
  3567 ;; This function calls:
  3568 ;;		Nothing
  3569 ;; This function is called by:
  3570 ;;		_main
  3571 ;; This function uses a non-reentrant model
  3572 ;;
  3573                           
  3574     04D2                     _snake_getField:	
  3575                           ;psect for function _snake_getField
  3576                           
  3577     04D2                     l2168:	
  3578                           ;incstack = 0
  3579                           ; Regs used in _snake_getField: [wreg]
  3580                           
  3581                           
  3582                           ;snake.c: 83:     return field;
  3583     04D2  3020               	movlw	(low (_field| (0+256)))& (0+255)
  3584     04D3                     l410:
  3585     04D3  0008               	return
  3586     04D4                     __end_of_snake_getField:
  3587                           
  3588                           	psect	text7
  3589     05D6                     __ptext7:	
  3590 ;; *************** function _sendMatrix *****************
  3591 ;; Defined at:
  3592 ;;		line 39 in file "ledMatrix.c"
  3593 ;; Parameters:    Size  Location     Type
  3594 ;;		None
  3595 ;; Auto vars:     Size  Location     Type
  3596 ;;  j               1    6[COMMON] unsigned char 
  3597 ;;  i               1    7[COMMON] unsigned char 
  3598 ;;  nb              1    5[COMMON] unsigned char 
  3599 ;;  b               1    4[COMMON] unsigned char 
  3600 ;; Return value:  Size  Location     Type
  3601 ;;                  1    wreg      void 
  3602 ;; Registers used:
  3603 ;;		wreg, fsr1l, fsr1h, status,2, status,0, pclath, cstack
  3604 ;; Tracked objects:
  3605 ;;		On entry : 0/0
  3606 ;;		On exit  : 0/0
  3607 ;;		Unchanged: 0/0
  3608 ;; Data sizes:     COMMON   BANK0   BANK1   BANK2   BANK3   BANK4
  3609 ;;      Params:         0       0       0       0       0       0
  3610 ;;      Locals:         4       0       0       0       0       0
  3611 ;;      Temps:          1       0       0       0       0       0
  3612 ;;      Totals:         5       0       0       0       0       0
  3613 ;;Total ram usage:        5 bytes
  3614 ;; Hardware stack levels used: 1
  3615 ;; Hardware stack levels required when called: 2
  3616 ;; This function calls:
  3617 ;;		_txMAX7219
  3618 ;; This function is called by:
  3619 ;;		_main
  3620 ;; This function uses a non-reentrant model
  3621 ;;
  3622                           
  3623     05D6                     _sendMatrix:	
  3624                           ;psect for function _sendMatrix
  3625                           
  3626     05D6                     l2254:	
  3627                           ;incstack = 0
  3628                           ; Regs used in _sendMatrix: [wreg+fsr1l+fsr1h+status,2+status,0+pclath+cstack]
  3629                           
  3630                           
  3631                           ;ledMatrix.c: 40:     uint8_t b;;ledMatrix.c: 41:     uint8_t nb;;ledMatrix.c: 42:     f
      +                          or(uint8_t i=0;i<8;i++){
  3632     05D6  01F7               	clrf	sendMatrix@i
  3633     05D7                     l2260:
  3634                           
  3635                           ;ledMatrix.c: 46:         b = matrix[i];
  3636     05D7  0877               	movf	sendMatrix@i,w
  3637     05D8  3E3E               	addlw	(low (_matrix| 0))& (0+255)
  3638     05D9  0086               	movwf	6
  3639     05DA  0187               	clrf	7
  3640     05DB  0801               	movf	1,w
  3641     05DC  00F4               	movwf	sendMatrix@b
  3642     05DD                     l2262:
  3643                           
  3644                           ;ledMatrix.c: 49:         nb = 0x00;
  3645     05DD  01F5               	clrf	sendMatrix@nb
  3646     05DE                     l2264:
  3647                           
  3648                           ;ledMatrix.c: 50:         for(uint8_t j = 0; j < 8; j++){
  3649     05DE  01F6               	clrf	sendMatrix@j
  3650     05DF                     l2270:
  3651                           
  3652                           ;ledMatrix.c: 51:             nb |= b&0x01;
  3653     05DF  0874               	movf	sendMatrix@b,w
  3654     05E0  3901               	andlw	1
  3655     05E1  00F3               	movwf	??_sendMatrix
  3656     05E2  0873               	movf	??_sendMatrix,w
  3657     05E3  04F5               	iorwf	sendMatrix@nb,f
  3658     05E4                     l2272:
  3659                           
  3660                           ;ledMatrix.c: 52:             nb <<= 1;
  3661     05E4  1003               	clrc
  3662     05E5  0DF5               	rlf	sendMatrix@nb,f
  3663     05E6                     l2274:
  3664                           
  3665                           ;ledMatrix.c: 53:             b >>= 1;
  3666     05E6  1003               	clrc
  3667     05E7  0CF4               	rrf	sendMatrix@b,f
  3668                           
  3669                           ;ledMatrix.c: 54:         }
  3670     05E8  3001               	movlw	1
  3671     05E9  00F3               	movwf	??_sendMatrix
  3672     05EA  0873               	movf	??_sendMatrix,w
  3673     05EB  07F6               	addwf	sendMatrix@j,f
  3674     05EC                     l2276:
  3675     05EC  3008               	movlw	8
  3676     05ED  0276               	subwf	sendMatrix@j,w
  3677     05EE  1C03               	skipc
  3678     05EF  2DF1               	goto	u941
  3679     05F0  2DF2               	goto	u940
  3680     05F1                     u941:
  3681     05F1  2DDF               	goto	l2270
  3682     05F2                     u940:
  3683     05F2                     l2278:
  3684                           
  3685                           ;ledMatrix.c: 55:         txMAX7219(i+1,nb);
  3686     05F2  0875               	movf	sendMatrix@nb,w
  3687     05F3  00F1               	movwf	txMAX7219@dat0
  3688     05F4  0877               	movf	sendMatrix@i,w
  3689     05F5  3E01               	addlw	1
  3690     05F6  3185  2572  3185   	fcall	_txMAX7219
  3691     05F9                     l2280:
  3692                           
  3693                           ;ledMatrix.c: 59:     }
  3694     05F9  3001               	movlw	1
  3695     05FA  00F3               	movwf	??_sendMatrix
  3696     05FB  0873               	movf	??_sendMatrix,w
  3697     05FC  07F7               	addwf	sendMatrix@i,f
  3698     05FD                     l2282:
  3699     05FD  3008               	movlw	8
  3700     05FE  0277               	subwf	sendMatrix@i,w
  3701     05FF  1C03               	skipc
  3702     0600  2E02               	goto	u951
  3703     0601  2E03               	goto	u950
  3704     0602                     u951:
  3705     0602  2DD7               	goto	l2260
  3706     0603                     u950:
  3707     0603                     l355:
  3708     0603  0008               	return
  3709     0604                     __end_of_sendMatrix:
  3710                           
  3711                           	psect	text8
  3712     0537                     __ptext8:	
  3713 ;; *************** function _ledSet *****************
  3714 ;; Defined at:
  3715 ;;		line 31 in file "ledMatrix.c"
  3716 ;; Parameters:    Size  Location     Type
  3717 ;;  l               1    wreg     unsigned char 
  3718 ;;  c               1    0[COMMON] unsigned char 
  3719 ;; Auto vars:     Size  Location     Type
  3720 ;;  l               1    3[COMMON] unsigned char 
  3721 ;; Return value:  Size  Location     Type
  3722 ;;                  1    wreg      void 
  3723 ;; Registers used:
  3724 ;;		wreg, fsr1l, fsr1h, status,2, status,0
  3725 ;; Tracked objects:
  3726 ;;		On entry : 0/0
  3727 ;;		On exit  : 0/0
  3728 ;;		Unchanged: 0/0
  3729 ;; Data sizes:     COMMON   BANK0   BANK1   BANK2   BANK3   BANK4
  3730 ;;      Params:         1       0       0       0       0       0
  3731 ;;      Locals:         1       0       0       0       0       0
  3732 ;;      Temps:          2       0       0       0       0       0
  3733 ;;      Totals:         4       0       0       0       0       0
  3734 ;;Total ram usage:        4 bytes
  3735 ;; Hardware stack levels used: 1
  3736 ;; This function calls:
  3737 ;;		Nothing
  3738 ;; This function is called by:
  3739 ;;		_main
  3740 ;; This function uses a non-reentrant model
  3741 ;;
  3742                           
  3743     0537                     _ledSet:	
  3744                           ;psect for function _ledSet
  3745                           
  3746                           
  3747                           ;incstack = 0
  3748                           ; Regs used in _ledSet: [wreg+fsr1l+fsr1h+status,2+status,0]
  3749                           ;ledSet@l stored from wreg
  3750     0537  00F3               	movwf	ledSet@l
  3751     0538                     l2246:
  3752                           
  3753                           ;ledMatrix.c: 32:     (matrix[l]) |= 1UL << (c);
  3754     0538  3001               	movlw	1
  3755     0539  00F1               	movwf	??_ledSet
  3756     053A  0A70               	incf	ledSet@c,w
  3757     053B  2D3D               	goto	u924
  3758     053C                     u925:
  3759     053C  35F1               	lslf	??_ledSet,f
  3760     053D                     u924:
  3761     053D  0B89               	decfsz	9,f
  3762     053E  2D3C               	goto	u925
  3763     053F  0871               	movf	??_ledSet,w
  3764     0540  00F2               	movwf	??_ledSet+1
  3765     0541  0873               	movf	ledSet@l,w
  3766     0542  3E3E               	addlw	(low (_matrix| 0))& (0+255)
  3767     0543  0086               	movwf	6
  3768     0544  0187               	clrf	7
  3769     0545  0872               	movf	??_ledSet+1,w
  3770     0546  0481               	iorwf	1,f
  3771     0547                     l345:
  3772     0547  0008               	return
  3773     0548                     __end_of_ledSet:
  3774                           
  3775                           	psect	text9
  3776     0548                     __ptext9:	
  3777 ;; *************** function _ledClear *****************
  3778 ;; Defined at:
  3779 ;;		line 35 in file "ledMatrix.c"
  3780 ;; Parameters:    Size  Location     Type
  3781 ;;  l               1    wreg     unsigned char 
  3782 ;;  c               1    0[COMMON] unsigned char 
  3783 ;; Auto vars:     Size  Location     Type
  3784 ;;  l               1    3[COMMON] unsigned char 
  3785 ;; Return value:  Size  Location     Type
  3786 ;;                  1    wreg      void 
  3787 ;; Registers used:
  3788 ;;		wreg, fsr1l, fsr1h, status,2, status,0
  3789 ;; Tracked objects:
  3790 ;;		On entry : 0/0
  3791 ;;		On exit  : 0/0
  3792 ;;		Unchanged: 0/0
  3793 ;; Data sizes:     COMMON   BANK0   BANK1   BANK2   BANK3   BANK4
  3794 ;;      Params:         1       0       0       0       0       0
  3795 ;;      Locals:         1       0       0       0       0       0
  3796 ;;      Temps:          2       0       0       0       0       0
  3797 ;;      Totals:         4       0       0       0       0       0
  3798 ;;Total ram usage:        4 bytes
  3799 ;; Hardware stack levels used: 1
  3800 ;; This function calls:
  3801 ;;		Nothing
  3802 ;; This function is called by:
  3803 ;;		_main
  3804 ;; This function uses a non-reentrant model
  3805 ;;
  3806                           
  3807     0548                     _ledClear:	
  3808                           ;psect for function _ledClear
  3809                           
  3810                           
  3811                           ;incstack = 0
  3812                           ; Regs used in _ledClear: [wreg+fsr1l+fsr1h+status,2+status,0]
  3813                           ;ledClear@l stored from wreg
  3814     0548  00F3               	movwf	ledClear@l
  3815     0549                     l2248:
  3816                           
  3817                           ;ledMatrix.c: 36:     (matrix[l]) &= ~(1UL << (c));
  3818     0549  3001               	movlw	1
  3819     054A  00F1               	movwf	??_ledClear
  3820     054B  0A70               	incf	ledClear@c,w
  3821     054C  2D4E               	goto	u934
  3822     054D                     u935:
  3823     054D  35F1               	lslf	??_ledClear,f
  3824     054E                     u934:
  3825     054E  0B89               	decfsz	9,f
  3826     054F  2D4D               	goto	u935
  3827     0550  0871               	movf	??_ledClear,w
  3828     0551  3AFF               	xorlw	255
  3829     0552  00F2               	movwf	??_ledClear+1
  3830     0553  0873               	movf	ledClear@l,w
  3831     0554  3E3E               	addlw	(low (_matrix| 0))& (0+255)
  3832     0555  0086               	movwf	6
  3833     0556  0187               	clrf	7
  3834     0557  0872               	movf	??_ledClear+1,w
  3835     0558  0581               	andwf	1,f
  3836     0559                     l348:
  3837     0559  0008               	return
  3838     055A                     __end_of_ledClear:
  3839                           
  3840                           	psect	text10
  3841     066C                     __ptext10:	
  3842 ;; *************** function _initMAX7219 *****************
  3843 ;; Defined at:
  3844 ;;		line 16 in file "ledMatrix.c"
  3845 ;; Parameters:    Size  Location     Type
  3846 ;;		None
  3847 ;; Auto vars:     Size  Location     Type
  3848 ;;		None
  3849 ;; Return value:  Size  Location     Type
  3850 ;;                  1    wreg      void 
  3851 ;; Registers used:
  3852 ;;		wreg, status,2, status,0, pclath, cstack
  3853 ;; Tracked objects:
  3854 ;;		On entry : 0/0
  3855 ;;		On exit  : 0/0
  3856 ;;		Unchanged: 0/0
  3857 ;; Data sizes:     COMMON   BANK0   BANK1   BANK2   BANK3   BANK4
  3858 ;;      Params:         0       0       0       0       0       0
  3859 ;;      Locals:         0       0       0       0       0       0
  3860 ;;      Temps:          2       0       0       0       0       0
  3861 ;;      Totals:         2       0       0       0       0       0
  3862 ;;Total ram usage:        2 bytes
  3863 ;; Hardware stack levels used: 1
  3864 ;; Hardware stack levels required when called: 2
  3865 ;; This function calls:
  3866 ;;		_txMAX7219
  3867 ;; This function is called by:
  3868 ;;		_main
  3869 ;; This function uses a non-reentrant model
  3870 ;;
  3871                           
  3872     066C                     _initMAX7219:	
  3873                           ;psect for function _initMAX7219
  3874                           
  3875     066C                     l2158:	
  3876                           ;incstack = 0
  3877                           ; Regs used in _initMAX7219: [wreg+status,2+status,0+pclath+cstack]
  3878                           
  3879                           
  3880                           ;ledMatrix.c: 17:     LATBbits.LATB1 = 1;
  3881     066C  0022               	movlb	2	; select bank2
  3882     066D  148D               	bsf	13,1	;volatile
  3883                           
  3884                           ;ledMatrix.c: 18:     TRISBbits.TRISB1 = 0;
  3885     066E  0021               	movlb	1	; select bank1
  3886     066F  108D               	bcf	13,1	;volatile
  3887                           
  3888                           ;ledMatrix.c: 19:     SSP1CON1bits.SSPEN = 1;
  3889     0670  0024               	movlb	4	; select bank4
  3890     0671  1695               	bsf	21,5	;volatile
  3891     0672                     l2160:
  3892                           
  3893                           ;ledMatrix.c: 20:     txMAX7219(0x09,0x00);
  3894     0672  01F1               	clrf	txMAX7219@dat0
  3895     0673  3009               	movlw	9
  3896     0674  3185  2572  3186   	fcall	_txMAX7219
  3897                           
  3898                           ;ledMatrix.c: 21:     txMAX7219(0x0A,0x00);
  3899     0677  01F1               	clrf	txMAX7219@dat0
  3900     0678  300A               	movlw	10
  3901     0679  3185  2572  3186   	fcall	_txMAX7219
  3902                           
  3903                           ;ledMatrix.c: 22:     txMAX7219(0x0C,0x00);
  3904     067C  01F1               	clrf	txMAX7219@dat0
  3905     067D  300C               	movlw	12
  3906     067E  3185  2572  3186   	fcall	_txMAX7219
  3907                           
  3908                           ;ledMatrix.c: 23:     txMAX7219(0x0B,0x07);
  3909     0681  3007               	movlw	7
  3910     0682  00F1               	movwf	txMAX7219@dat0
  3911     0683  300B               	movlw	11
  3912     0684  3185  2572  3186   	fcall	_txMAX7219
  3913                           
  3914                           ;ledMatrix.c: 24:     txMAX7219(0x0C,0x01);
  3915     0687  01F1               	clrf	txMAX7219@dat0
  3916     0688  0AF1               	incf	txMAX7219@dat0,f
  3917     0689  300C               	movlw	12
  3918     068A  3185  2572  3186   	fcall	_txMAX7219
  3919                           
  3920                           ;ledMatrix.c: 25:     txMAX7219(0x0F,0x01);
  3921     068D  01F1               	clrf	txMAX7219@dat0
  3922     068E  0AF1               	incf	txMAX7219@dat0,f
  3923     068F  300F               	movlw	15
  3924     0690  3185  2572  3186   	fcall	_txMAX7219
  3925     0693                     l2162:
  3926                           
  3927                           ;ledMatrix.c: 26:     _delay((unsigned long)((1000)*(8000000/4000.0)));
  3928     0693  300B               	movlw	11
  3929     0694  00F4               	movwf	??_initMAX7219+1
  3930     0695  3026               	movlw	38
  3931     0696  00F3               	movwf	??_initMAX7219
  3932     0697  305E               	movlw	94
  3933     0698                     u1497:
  3934     0698  0B89               	decfsz	9,f
  3935     0699  2E98               	goto	u1497
  3936     069A  0BF3               	decfsz	??_initMAX7219,f
  3937     069B  2E98               	goto	u1497
  3938     069C  0BF4               	decfsz	??_initMAX7219+1,f
  3939     069D  2E98               	goto	u1497
  3940     069E                     l2164:
  3941                           
  3942                           ;ledMatrix.c: 27:     txMAX7219(0x0F,0x00);
  3943     069E  01F1               	clrf	txMAX7219@dat0
  3944     069F  300F               	movlw	15
  3945     06A0  3185  2572  3186   	fcall	_txMAX7219
  3946     06A3                     l2166:
  3947                           
  3948                           ;ledMatrix.c: 28:     txMAX7219(0x0C,0x01);
  3949     06A3  01F1               	clrf	txMAX7219@dat0
  3950     06A4  0AF1               	incf	txMAX7219@dat0,f
  3951     06A5  300C               	movlw	12
  3952     06A6  3185  2572  3186   	fcall	_txMAX7219
  3953     06A9                     l342:
  3954     06A9  0008               	return
  3955     06AA                     __end_of_initMAX7219:
  3956                           
  3957                           	psect	text11
  3958     0572                     __ptext11:	
  3959 ;; *************** function _txMAX7219 *****************
  3960 ;; Defined at:
  3961 ;;		line 5 in file "ledMatrix.c"
  3962 ;; Parameters:    Size  Location     Type
  3963 ;;  addr0           1    wreg     unsigned char 
  3964 ;;  dat0            1    1[COMMON] unsigned char 
  3965 ;; Auto vars:     Size  Location     Type
  3966 ;;  addr0           1    2[COMMON] unsigned char 
  3967 ;; Return value:  Size  Location     Type
  3968 ;;                  1    wreg      void 
  3969 ;; Registers used:
  3970 ;;		wreg, status,2, status,0, pclath, cstack
  3971 ;; Tracked objects:
  3972 ;;		On entry : 0/0
  3973 ;;		On exit  : 0/0
  3974 ;;		Unchanged: 0/0
  3975 ;; Data sizes:     COMMON   BANK0   BANK1   BANK2   BANK3   BANK4
  3976 ;;      Params:         1       0       0       0       0       0
  3977 ;;      Locals:         1       0       0       0       0       0
  3978 ;;      Temps:          0       0       0       0       0       0
  3979 ;;      Totals:         2       0       0       0       0       0
  3980 ;;Total ram usage:        2 bytes
  3981 ;; Hardware stack levels used: 1
  3982 ;; Hardware stack levels required when called: 1
  3983 ;; This function calls:
  3984 ;;		_SPI1_WriteByte
  3985 ;; This function is called by:
  3986 ;;		_initMAX7219
  3987 ;;		_sendMatrix
  3988 ;; This function uses a non-reentrant model
  3989 ;;
  3990                           
  3991     0572                     _txMAX7219:	
  3992                           ;psect for function _txMAX7219
  3993                           
  3994                           
  3995                           ;incstack = 0
  3996                           ; Regs used in _txMAX7219: [wreg+status,2+status,0+pclath+cstack]
  3997                           ;txMAX7219@addr0 stored from wreg
  3998     0572  00F2               	movwf	txMAX7219@addr0
  3999     0573                     l2148:
  4000                           
  4001                           ;ledMatrix.c: 6:     LATBbits.LATB1 = 0;
  4002     0573  0022               	movlb	2	; select bank2
  4003     0574  108D               	bcf	13,1	;volatile
  4004     0575                     l2150:
  4005                           
  4006                           ;ledMatrix.c: 7:     SPI1_WriteByte(addr0);
  4007     0575  0872               	movf	txMAX7219@addr0,w
  4008     0576  3184  24DB  3185   	fcall	_SPI1_WriteByte
  4009     0579                     l333:	
  4010                           ;ledMatrix.c: 8:     while(!PIR1bits.SSP1IF);
  4011                           
  4012     0579  0020               	movlb	0	; select bank0
  4013     057A  1D91               	btfss	17,3	;volatile
  4014     057B  2D7D               	goto	u781
  4015     057C  2D7E               	goto	u780
  4016     057D                     u781:
  4017     057D  2D79               	goto	l333
  4018     057E                     u780:
  4019     057E                     l335:
  4020                           
  4021                           ;ledMatrix.c: 9:     PIR1bits.SSP1IF = 0;
  4022     057E  1191               	bcf	17,3	;volatile
  4023     057F                     l2152:
  4024                           
  4025                           ;ledMatrix.c: 10:     SPI1_WriteByte(dat0);
  4026     057F  0871               	movf	txMAX7219@dat0,w
  4027     0580  3184  24DB  3185   	fcall	_SPI1_WriteByte
  4028     0583                     l336:	
  4029                           ;ledMatrix.c: 11:     while(!PIR1bits.SSP1IF);
  4030                           
  4031     0583  0020               	movlb	0	; select bank0
  4032     0584  1D91               	btfss	17,3	;volatile
  4033     0585  2D87               	goto	u791
  4034     0586  2D88               	goto	u790
  4035     0587                     u791:
  4036     0587  2D83               	goto	l336
  4037     0588                     u790:
  4038     0588                     l338:
  4039                           
  4040                           ;ledMatrix.c: 12:     PIR1bits.SSP1IF = 0;
  4041     0588  1191               	bcf	17,3	;volatile
  4042                           
  4043                           ;ledMatrix.c: 13:     LATBbits.LATB1 = 1;
  4044     0589  0022               	movlb	2	; select bank2
  4045     058A  148D               	bsf	13,1	;volatile
  4046     058B                     l339:
  4047     058B  0008               	return
  4048     058C                     __end_of_txMAX7219:
  4049                           
  4050                           	psect	text12
  4051     04DB                     __ptext12:	
  4052 ;; *************** function _SPI1_WriteByte *****************
  4053 ;; Defined at:
  4054 ;;		line 131 in file "mcc_generated_files/spi1.c"
  4055 ;; Parameters:    Size  Location     Type
  4056 ;;  byte            1    wreg     unsigned char 
  4057 ;; Auto vars:     Size  Location     Type
  4058 ;;  byte            1    0[COMMON] unsigned char 
  4059 ;; Return value:  Size  Location     Type
  4060 ;;                  1    wreg      void 
  4061 ;; Registers used:
  4062 ;;		wreg
  4063 ;; Tracked objects:
  4064 ;;		On entry : 0/0
  4065 ;;		On exit  : 0/0
  4066 ;;		Unchanged: 0/0
  4067 ;; Data sizes:     COMMON   BANK0   BANK1   BANK2   BANK3   BANK4
  4068 ;;      Params:         0       0       0       0       0       0
  4069 ;;      Locals:         1       0       0       0       0       0
  4070 ;;      Temps:          0       0       0       0       0       0
  4071 ;;      Totals:         1       0       0       0       0       0
  4072 ;;Total ram usage:        1 bytes
  4073 ;; Hardware stack levels used: 1
  4074 ;; This function calls:
  4075 ;;		Nothing
  4076 ;; This function is called by:
  4077 ;;		_txMAX7219
  4078 ;; This function uses a non-reentrant model
  4079 ;;
  4080                           
  4081     04DB                     _SPI1_WriteByte:	
  4082                           ;psect for function _SPI1_WriteByte
  4083                           
  4084                           
  4085                           ;incstack = 0
  4086                           ; Regs used in _SPI1_WriteByte: [wreg]
  4087                           ;SPI1_WriteByte@byte stored from wreg
  4088     04DB  00F0               	movwf	SPI1_WriteByte@byte
  4089     04DC                     l2082:
  4090                           
  4091                           ;mcc_generated_files/spi1.c: 131: void SPI1_WriteByte(uint8_t byte);mcc_generated_files/
      +                          spi1.c: 132: {;mcc_generated_files/spi1.c: 133:     SSP1BUF = byte;
  4092     04DC  0870               	movf	SPI1_WriteByte@byte,w
  4093     04DD  0024               	movlb	4	; select bank4
  4094     04DE  0091               	movwf	17	;volatile
  4095     04DF                     l224:
  4096     04DF  0008               	return
  4097     04E0                     __end_of_SPI1_WriteByte:
  4098                           
  4099                           	psect	text13
  4100     051A                     __ptext13:	
  4101 ;; *************** function _deactivateElevator *****************
  4102 ;; Defined at:
  4103 ;;		line 50 in file "main.c"
  4104 ;; Parameters:    Size  Location     Type
  4105 ;;		None
  4106 ;; Auto vars:     Size  Location     Type
  4107 ;;		None
  4108 ;; Return value:  Size  Location     Type
  4109 ;;                  1    wreg      void 
  4110 ;; Registers used:
  4111 ;;		None
  4112 ;; Tracked objects:
  4113 ;;		On entry : 0/0
  4114 ;;		On exit  : 0/0
  4115 ;;		Unchanged: 0/0
  4116 ;; Data sizes:     COMMON   BANK0   BANK1   BANK2   BANK3   BANK4
  4117 ;;      Params:         0       0       0       0       0       0
  4118 ;;      Locals:         0       0       0       0       0       0
  4119 ;;      Temps:          0       0       0       0       0       0
  4120 ;;      Totals:         0       0       0       0       0       0
  4121 ;;Total ram usage:        0 bytes
  4122 ;; Hardware stack levels used: 1
  4123 ;; This function calls:
  4124 ;;		Nothing
  4125 ;; This function is called by:
  4126 ;;		_main
  4127 ;; This function uses a non-reentrant model
  4128 ;;
  4129                           
  4130     051A                     _deactivateElevator:	
  4131                           ;psect for function _deactivateElevator
  4132                           
  4133     051A                     l2156:	
  4134                           ;incstack = 0
  4135                           ; Regs used in _deactivateElevator: []
  4136                           
  4137                           
  4138                           ;main.c: 51:     LATAbits.LATA3 = 0;
  4139     051A  0022               	movlb	2	; select bank2
  4140     051B  118C               	bcf	12,3	;volatile
  4141                           
  4142                           ;main.c: 52:     LATAbits.LATA7 = 0;
  4143     051C  138C               	bcf	12,7	;volatile
  4144                           
  4145                           ;main.c: 54:     TRISAbits.TRISA0 = 1;
  4146     051D  0021               	movlb	1	; select bank1
  4147     051E  140C               	bsf	12,0	;volatile
  4148                           
  4149                           ;main.c: 55:     TRISAbits.TRISA1 = 1;
  4150     051F  148C               	bsf	12,1	;volatile
  4151                           
  4152                           ;main.c: 56:     TRISAbits.TRISA2 = 1;
  4153     0520  150C               	bsf	12,2	;volatile
  4154                           
  4155                           ;main.c: 57:     TRISAbits.TRISA3 = 0;
  4156     0521  118C               	bcf	12,3	;volatile
  4157                           
  4158                           ;main.c: 58:     TRISAbits.TRISA4 = 1;
  4159     0522  160C               	bsf	12,4	;volatile
  4160                           
  4161                           ;main.c: 59:     TRISAbits.TRISA7 = 0;
  4162     0523  138C               	bcf	12,7	;volatile
  4163                           
  4164                           ;main.c: 60:     TRISBbits.TRISB0 = 1;
  4165     0524  140D               	bsf	13,0	;volatile
  4166                           
  4167                           ;main.c: 61:     TRISBbits.TRISB3 = 1;
  4168     0525  158D               	bsf	13,3	;volatile
  4169     0526                     l301:
  4170     0526  0008               	return
  4171     0527                     __end_of_deactivateElevator:
  4172                           
  4173                           	psect	text14
  4174     0527                     __ptext14:	
  4175 ;; *************** function _SYSTEM_Initialize *****************
  4176 ;; Defined at:
  4177 ;;		line 50 in file "mcc_generated_files/mcc.c"
  4178 ;; Parameters:    Size  Location     Type
  4179 ;;		None
  4180 ;; Auto vars:     Size  Location     Type
  4181 ;;		None
  4182 ;; Return value:  Size  Location     Type
  4183 ;;                  1    wreg      void 
  4184 ;; Registers used:
  4185 ;;		wreg, status,2, status,0, pclath, cstack
  4186 ;; Tracked objects:
  4187 ;;		On entry : 0/0
  4188 ;;		On exit  : 0/0
  4189 ;;		Unchanged: 0/0
  4190 ;; Data sizes:     COMMON   BANK0   BANK1   BANK2   BANK3   BANK4
  4191 ;;      Params:         0       0       0       0       0       0
  4192 ;;      Locals:         0       0       0       0       0       0
  4193 ;;      Temps:          0       0       0       0       0       0
  4194 ;;      Totals:         0       0       0       0       0       0
  4195 ;;Total ram usage:        0 bytes
  4196 ;; Hardware stack levels used: 1
  4197 ;; Hardware stack levels required when called: 2
  4198 ;; This function calls:
  4199 ;;		_EUSART_Initialize
  4200 ;;		_OSCILLATOR_Initialize
  4201 ;;		_PIN_MANAGER_Initialize
  4202 ;;		_SPI1_Initialize
  4203 ;;		_WDT_Initialize
  4204 ;; This function is called by:
  4205 ;;		_main
  4206 ;; This function uses a non-reentrant model
  4207 ;;
  4208                           
  4209     0527                     _SYSTEM_Initialize:	
  4210                           ;psect for function _SYSTEM_Initialize
  4211                           
  4212     0527                     l2154:	
  4213                           ;incstack = 0
  4214                           ; Regs used in _SYSTEM_Initialize: [wreg+status,2+status,0+pclath+cstack]
  4215                           
  4216                           
  4217                           ;mcc_generated_files/mcc.c: 53:     SPI1_Initialize();
  4218     0527  3185  250E  3185   	fcall	_SPI1_Initialize
  4219                           
  4220                           ;mcc_generated_files/mcc.c: 54:     PIN_MANAGER_Initialize();
  4221     052A  3185  255A  3185   	fcall	_PIN_MANAGER_Initialize
  4222                           
  4223                           ;mcc_generated_files/mcc.c: 55:     OSCILLATOR_Initialize();
  4224     052D  3184  24FE  3185   	fcall	_OSCILLATOR_Initialize
  4225                           
  4226                           ;mcc_generated_files/mcc.c: 56:     WDT_Initialize();
  4227     0530  3184  24D7  3185   	fcall	_WDT_Initialize
  4228                           
  4229                           ;mcc_generated_files/mcc.c: 57:     EUSART_Initialize();
  4230     0533  3185  258C  3185   	fcall	_EUSART_Initialize
  4231     0536                     l248:
  4232     0536  0008               	return
  4233     0537                     __end_of_SYSTEM_Initialize:
  4234                           
  4235                           	psect	text15
  4236     04D7                     __ptext15:	
  4237 ;; *************** function _WDT_Initialize *****************
  4238 ;; Defined at:
  4239 ;;		line 70 in file "mcc_generated_files/mcc.c"
  4240 ;; Parameters:    Size  Location     Type
  4241 ;;		None
  4242 ;; Auto vars:     Size  Location     Type
  4243 ;;		None
  4244 ;; Return value:  Size  Location     Type
  4245 ;;                  1    wreg      void 
  4246 ;; Registers used:
  4247 ;;		wreg
  4248 ;; Tracked objects:
  4249 ;;		On entry : 0/0
  4250 ;;		On exit  : 0/0
  4251 ;;		Unchanged: 0/0
  4252 ;; Data sizes:     COMMON   BANK0   BANK1   BANK2   BANK3   BANK4
  4253 ;;      Params:         0       0       0       0       0       0
  4254 ;;      Locals:         0       0       0       0       0       0
  4255 ;;      Temps:          0       0       0       0       0       0
  4256 ;;      Totals:         0       0       0       0       0       0
  4257 ;;Total ram usage:        0 bytes
  4258 ;; Hardware stack levels used: 1
  4259 ;; This function calls:
  4260 ;;		Nothing
  4261 ;; This function is called by:
  4262 ;;		_SYSTEM_Initialize
  4263 ;; This function uses a non-reentrant model
  4264 ;;
  4265                           
  4266     04D7                     _WDT_Initialize:	
  4267                           ;psect for function _WDT_Initialize
  4268                           
  4269     04D7                     l2130:	
  4270                           ;incstack = 0
  4271                           ; Regs used in _WDT_Initialize: [wreg]
  4272                           
  4273                           
  4274                           ;mcc_generated_files/mcc.c: 73:     WDTCON = 0x16;
  4275     04D7  3016               	movlw	22
  4276     04D8  0021               	movlb	1	; select bank1
  4277     04D9  0097               	movwf	23	;volatile
  4278     04DA                     l254:
  4279     04DA  0008               	return
  4280     04DB                     __end_of_WDT_Initialize:
  4281                           
  4282                           	psect	text16
  4283     050E                     __ptext16:	
  4284 ;; *************** function _SPI1_Initialize *****************
  4285 ;; Defined at:
  4286 ;;		line 62 in file "mcc_generated_files/spi1.c"
  4287 ;; Parameters:    Size  Location     Type
  4288 ;;		None
  4289 ;; Auto vars:     Size  Location     Type
  4290 ;;		None
  4291 ;; Return value:  Size  Location     Type
  4292 ;;                  1    wreg      void 
  4293 ;; Registers used:
  4294 ;;		wreg
  4295 ;; Tracked objects:
  4296 ;;		On entry : 0/0
  4297 ;;		On exit  : 0/0
  4298 ;;		Unchanged: 0/0
  4299 ;; Data sizes:     COMMON   BANK0   BANK1   BANK2   BANK3   BANK4
  4300 ;;      Params:         0       0       0       0       0       0
  4301 ;;      Locals:         0       0       0       0       0       0
  4302 ;;      Temps:          0       0       0       0       0       0
  4303 ;;      Totals:         0       0       0       0       0       0
  4304 ;;Total ram usage:        0 bytes
  4305 ;; Hardware stack levels used: 1
  4306 ;; This function calls:
  4307 ;;		Nothing
  4308 ;; This function is called by:
  4309 ;;		_SYSTEM_Initialize
  4310 ;; This function uses a non-reentrant model
  4311 ;;
  4312                           
  4313     050E                     _SPI1_Initialize:	
  4314                           ;psect for function _SPI1_Initialize
  4315                           
  4316     050E                     l2118:	
  4317                           ;incstack = 0
  4318                           ; Regs used in _SPI1_Initialize: [wreg]
  4319                           
  4320                           
  4321                           ;mcc_generated_files/spi1.c: 65:     SSP1STAT = 0x40;
  4322     050E  3040               	movlw	64
  4323     050F  0024               	movlb	4	; select bank4
  4324     0510  0094               	movwf	20	;volatile
  4325                           
  4326                           ;mcc_generated_files/spi1.c: 66:     SSP1CON1 = 0x02;
  4327     0511  3002               	movlw	2
  4328     0512  0095               	movwf	21	;volatile
  4329                           
  4330                           ;mcc_generated_files/spi1.c: 67:     SSP1ADD = 0x01;
  4331     0513  3001               	movlw	1
  4332     0514  0092               	movwf	18	;volatile
  4333     0515                     l2120:
  4334                           
  4335                           ;mcc_generated_files/spi1.c: 68:     TRISBbits.TRISB4 = 0;
  4336     0515  0021               	movlb	1	; select bank1
  4337     0516  120D               	bcf	13,4	;volatile
  4338     0517                     l2122:
  4339                           
  4340                           ;mcc_generated_files/spi1.c: 69:     SSP1CON1bits.SSPEN = 0;
  4341     0517  0024               	movlb	4	; select bank4
  4342     0518  1295               	bcf	21,5	;volatile
  4343     0519                     l187:
  4344     0519  0008               	return
  4345     051A                     __end_of_SPI1_Initialize:
  4346                           
  4347                           	psect	text17
  4348     055A                     __ptext17:	
  4349 ;; *************** function _PIN_MANAGER_Initialize *****************
  4350 ;; Defined at:
  4351 ;;		line 55 in file "mcc_generated_files/pin_manager.c"
  4352 ;; Parameters:    Size  Location     Type
  4353 ;;		None
  4354 ;; Auto vars:     Size  Location     Type
  4355 ;;		None
  4356 ;; Return value:  Size  Location     Type
  4357 ;;                  1    wreg      void 
  4358 ;; Registers used:
  4359 ;;		wreg, status,2
  4360 ;; Tracked objects:
  4361 ;;		On entry : 0/0
  4362 ;;		On exit  : 0/0
  4363 ;;		Unchanged: 0/0
  4364 ;; Data sizes:     COMMON   BANK0   BANK1   BANK2   BANK3   BANK4
  4365 ;;      Params:         0       0       0       0       0       0
  4366 ;;      Locals:         0       0       0       0       0       0
  4367 ;;      Temps:          0       0       0       0       0       0
  4368 ;;      Totals:         0       0       0       0       0       0
  4369 ;;Total ram usage:        0 bytes
  4370 ;; Hardware stack levels used: 1
  4371 ;; This function calls:
  4372 ;;		Nothing
  4373 ;; This function is called by:
  4374 ;;		_SYSTEM_Initialize
  4375 ;; This function uses a non-reentrant model
  4376 ;;
  4377                           
  4378     055A                     _PIN_MANAGER_Initialize:	
  4379                           ;psect for function _PIN_MANAGER_Initialize
  4380                           
  4381     055A                     l2102:	
  4382                           ;incstack = 0
  4383                           ; Regs used in _PIN_MANAGER_Initialize: [wreg+status,2]
  4384                           
  4385                           
  4386                           ;mcc_generated_files/pin_manager.c: 60:     LATA = 0x00;
  4387     055A  0022               	movlb	2	; select bank2
  4388     055B  018C               	clrf	12	;volatile
  4389                           
  4390                           ;mcc_generated_files/pin_manager.c: 61:     LATB = 0x00;
  4391     055C  018D               	clrf	13	;volatile
  4392     055D                     l2104:
  4393                           
  4394                           ;mcc_generated_files/pin_manager.c: 66:     TRISA = 0x37;
  4395     055D  3037               	movlw	55
  4396     055E  0021               	movlb	1	; select bank1
  4397     055F  008C               	movwf	12	;volatile
  4398     0560                     l2106:
  4399                           
  4400                           ;mcc_generated_files/pin_manager.c: 67:     TRISB = 0xEF;
  4401     0560  30EF               	movlw	239
  4402     0561  008D               	movwf	13	;volatile
  4403     0562                     l2108:
  4404                           
  4405                           ;mcc_generated_files/pin_manager.c: 72:     ANSELB = 0xC8;
  4406     0562  30C8               	movlw	200
  4407     0563  0023               	movlb	3	; select bank3
  4408     0564  008D               	movwf	13	;volatile
  4409     0565                     l2110:
  4410                           
  4411                           ;mcc_generated_files/pin_manager.c: 73:     ANSELA = 0x1F;
  4412     0565  301F               	movlw	31
  4413     0566  008C               	movwf	12	;volatile
  4414                           
  4415                           ;mcc_generated_files/pin_manager.c: 78:     WPUB = 0x00;
  4416     0567  0024               	movlb	4	; select bank4
  4417     0568  018D               	clrf	13	;volatile
  4418                           
  4419                           ;mcc_generated_files/pin_manager.c: 79:     WPUA = 0x00;
  4420     0569  018C               	clrf	12	;volatile
  4421     056A                     l2112:
  4422                           
  4423                           ;mcc_generated_files/pin_manager.c: 80:     OPTION_REGbits.nWPUEN = 1;
  4424     056A  0021               	movlb	1	; select bank1
  4425     056B  1795               	bsf	21,7	;volatile
  4426     056C                     l2114:
  4427                           
  4428                           ;mcc_generated_files/pin_manager.c: 86:     APFCON0 = 0xC0;
  4429     056C  30C0               	movlw	192
  4430     056D  0022               	movlb	2	; select bank2
  4431     056E  009D               	movwf	29	;volatile
  4432     056F                     l2116:
  4433                           
  4434                           ;mcc_generated_files/pin_manager.c: 87:     APFCON1 = 0x01;
  4435     056F  3001               	movlw	1
  4436     0570  009E               	movwf	30	;volatile
  4437     0571                     l163:
  4438     0571  0008               	return
  4439     0572                     __end_of_PIN_MANAGER_Initialize:
  4440                           
  4441                           	psect	text18
  4442     04FE                     __ptext18:	
  4443 ;; *************** function _OSCILLATOR_Initialize *****************
  4444 ;; Defined at:
  4445 ;;		line 60 in file "mcc_generated_files/mcc.c"
  4446 ;; Parameters:    Size  Location     Type
  4447 ;;		None
  4448 ;; Auto vars:     Size  Location     Type
  4449 ;;		None
  4450 ;; Return value:  Size  Location     Type
  4451 ;;                  1    wreg      void 
  4452 ;; Registers used:
  4453 ;;		wreg, status,2
  4454 ;; Tracked objects:
  4455 ;;		On entry : 0/0
  4456 ;;		On exit  : 0/0
  4457 ;;		Unchanged: 0/0
  4458 ;; Data sizes:     COMMON   BANK0   BANK1   BANK2   BANK3   BANK4
  4459 ;;      Params:         0       0       0       0       0       0
  4460 ;;      Locals:         0       0       0       0       0       0
  4461 ;;      Temps:          0       0       0       0       0       0
  4462 ;;      Totals:         0       0       0       0       0       0
  4463 ;;Total ram usage:        0 bytes
  4464 ;; Hardware stack levels used: 1
  4465 ;; This function calls:
  4466 ;;		Nothing
  4467 ;; This function is called by:
  4468 ;;		_SYSTEM_Initialize
  4469 ;; This function uses a non-reentrant model
  4470 ;;
  4471                           
  4472     04FE                     _OSCILLATOR_Initialize:	
  4473                           ;psect for function _OSCILLATOR_Initialize
  4474                           
  4475     04FE                     l2124:	
  4476                           ;incstack = 0
  4477                           ; Regs used in _OSCILLATOR_Initialize: [wreg+status,2]
  4478                           
  4479                           
  4480                           ;mcc_generated_files/mcc.c: 63:     OSCCON = 0x70;
  4481     04FE  3070               	movlw	112
  4482     04FF  0021               	movlb	1	; select bank1
  4483     0500  0099               	movwf	25	;volatile
  4484     0501                     l2126:
  4485                           
  4486                           ;mcc_generated_files/mcc.c: 65:     OSCTUNE = 0x00;
  4487     0501  0198               	clrf	24	;volatile
  4488     0502                     l2128:
  4489                           
  4490                           ;mcc_generated_files/mcc.c: 67:     BORCON = 0x00;
  4491     0502  0022               	movlb	2	; select bank2
  4492     0503  0196               	clrf	22	;volatile
  4493     0504                     l251:
  4494     0504  0008               	return
  4495     0505                     __end_of_OSCILLATOR_Initialize:
  4496                           
  4497                           	psect	text19
  4498     058C                     __ptext19:	
  4499 ;; *************** function _EUSART_Initialize *****************
  4500 ;; Defined at:
  4501 ;;		line 66 in file "mcc_generated_files/eusart.c"
  4502 ;; Parameters:    Size  Location     Type
  4503 ;;		None
  4504 ;; Auto vars:     Size  Location     Type
  4505 ;;		None
  4506 ;; Return value:  Size  Location     Type
  4507 ;;                  1    wreg      void 
  4508 ;; Registers used:
  4509 ;;		wreg, status,2, status,0, pclath, cstack
  4510 ;; Tracked objects:
  4511 ;;		On entry : 0/0
  4512 ;;		On exit  : 0/0
  4513 ;;		Unchanged: 0/0
  4514 ;; Data sizes:     COMMON   BANK0   BANK1   BANK2   BANK3   BANK4
  4515 ;;      Params:         0       0       0       0       0       0
  4516 ;;      Locals:         0       0       0       0       0       0
  4517 ;;      Temps:          0       0       0       0       0       0
  4518 ;;      Totals:         0       0       0       0       0       0
  4519 ;;Total ram usage:        0 bytes
  4520 ;; Hardware stack levels used: 1
  4521 ;; Hardware stack levels required when called: 1
  4522 ;; This function calls:
  4523 ;;		_EUSART_SetErrorHandler
  4524 ;;		_EUSART_SetFramingErrorHandler
  4525 ;;		_EUSART_SetOverrunErrorHandler
  4526 ;; This function is called by:
  4527 ;;		_SYSTEM_Initialize
  4528 ;; This function uses a non-reentrant model
  4529 ;;
  4530                           
  4531     058C                     _EUSART_Initialize:	
  4532                           ;psect for function _EUSART_Initialize
  4533                           
  4534     058C                     l2090:	
  4535                           ;incstack = 0
  4536                           ; Regs used in _EUSART_Initialize: [wreg+status,2+status,0+pclath+cstack]
  4537                           
  4538                           
  4539                           ;mcc_generated_files/eusart.c: 71:     BAUDCON = 0x08;
  4540     058C  3008               	movlw	8
  4541     058D  0023               	movlb	3	; select bank3
  4542     058E  009F               	movwf	31	;volatile
  4543                           
  4544                           ;mcc_generated_files/eusart.c: 74:     RCSTA = 0x90;
  4545     058F  3090               	movlw	144
  4546     0590  009D               	movwf	29	;volatile
  4547                           
  4548                           ;mcc_generated_files/eusart.c: 77:     TXSTA = 0x24;
  4549     0591  3024               	movlw	36
  4550     0592  009E               	movwf	30	;volatile
  4551                           
  4552                           ;mcc_generated_files/eusart.c: 80:     SPBRGL = 0xCF;
  4553     0593  30CF               	movlw	207
  4554     0594  009B               	movwf	27	;volatile
  4555     0595                     l2092:
  4556                           
  4557                           ;mcc_generated_files/eusart.c: 83:     SPBRGH = 0x00;
  4558     0595  019C               	clrf	28	;volatile
  4559     0596                     l2094:
  4560                           
  4561                           ;mcc_generated_files/eusart.c: 86:     EUSART_SetFramingErrorHandler(EUSART_DefaultFrami
      +                          ngErrorHandler);
  4562     0596  3000               	movlw	0
  4563     0597  00F0               	movwf	EUSART_SetFramingErrorHandler@interruptHandler
  4564     0598  3000               	movlw	0
  4565     0599  00F1               	movwf	EUSART_SetFramingErrorHandler@interruptHandler+1
  4566     059A  3184  24E6  3185   	fcall	_EUSART_SetFramingErrorHandler
  4567     059D                     l2096:
  4568                           
  4569                           ;mcc_generated_files/eusart.c: 87:     EUSART_SetOverrunErrorHandler(EUSART_DefaultOverr
      +                          unErrorHandler);
  4570     059D  3000               	movlw	0
  4571     059E  00F0               	movwf	EUSART_SetOverrunErrorHandler@interruptHandler
  4572     059F  3000               	movlw	0
  4573     05A0  00F1               	movwf	EUSART_SetOverrunErrorHandler@interruptHandler+1
  4574     05A1  3184  24EC  3185   	fcall	_EUSART_SetOverrunErrorHandler
  4575     05A4                     l2098:
  4576                           
  4577                           ;mcc_generated_files/eusart.c: 88:     EUSART_SetErrorHandler(EUSART_DefaultErrorHandler
      +                          );
  4578     05A4  3000               	movlw	0
  4579     05A5  00F0               	movwf	EUSART_SetErrorHandler@interruptHandler
  4580     05A6  3000               	movlw	0
  4581     05A7  00F1               	movwf	EUSART_SetErrorHandler@interruptHandler+1
  4582     05A8  3184  24E0  3185   	fcall	_EUSART_SetErrorHandler
  4583     05AB                     l2100:
  4584                           
  4585                           ;mcc_generated_files/eusart.c: 90:     eusartRxLastError.status = 0;
  4586     05AB  0020               	movlb	0	; select bank0
  4587     05AC  01C9               	clrf	_eusartRxLastError	;volatile
  4588     05AD                     l93:
  4589     05AD  0008               	return
  4590     05AE                     __end_of_EUSART_Initialize:
  4591                           
  4592                           	psect	text20
  4593     04EC                     __ptext20:	
  4594 ;; *************** function _EUSART_SetOverrunErrorHandler *****************
  4595 ;; Defined at:
  4596 ;;		line 161 in file "mcc_generated_files/eusart.c"
  4597 ;; Parameters:    Size  Location     Type
  4598 ;;  interruptHan    2    0[COMMON] PTR FTN()void 
  4599 ;;		 -> EUSART_DefaultOverrunErrorHandler(1), 
  4600 ;; Auto vars:     Size  Location     Type
  4601 ;;		None
  4602 ;; Return value:  Size  Location     Type
  4603 ;;                  1    wreg      void 
  4604 ;; Registers used:
  4605 ;;		wreg
  4606 ;; Tracked objects:
  4607 ;;		On entry : 0/0
  4608 ;;		On exit  : 0/0
  4609 ;;		Unchanged: 0/0
  4610 ;; Data sizes:     COMMON   BANK0   BANK1   BANK2   BANK3   BANK4
  4611 ;;      Params:         2       0       0       0       0       0
  4612 ;;      Locals:         0       0       0       0       0       0
  4613 ;;      Temps:          0       0       0       0       0       0
  4614 ;;      Totals:         2       0       0       0       0       0
  4615 ;;Total ram usage:        2 bytes
  4616 ;; Hardware stack levels used: 1
  4617 ;; This function calls:
  4618 ;;		Nothing
  4619 ;; This function is called by:
  4620 ;;		_EUSART_Initialize
  4621 ;; This function uses a non-reentrant model
  4622 ;;
  4623                           
  4624     04EC                     _EUSART_SetOverrunErrorHandler:	
  4625                           ;psect for function _EUSART_SetOverrunErrorHandler
  4626                           
  4627     04EC                     l2078:	
  4628                           ;incstack = 0
  4629                           ; Regs used in _EUSART_SetOverrunErrorHandler: [wreg]
  4630                           
  4631                           
  4632                           ;mcc_generated_files/eusart.c: 162:     EUSART_OverrunErrorHandler = interruptHandler;
  4633     04EC  0871               	movf	EUSART_SetOverrunErrorHandler@interruptHandler+1,w
  4634     04ED  0021               	movlb	1	; select bank1
  4635     04EE  00DB               	movwf	(_EUSART_OverrunErrorHandler+1)^(0+128)
  4636     04EF  0870               	movf	EUSART_SetOverrunErrorHandler@interruptHandler,w
  4637     04F0  00DA               	movwf	_EUSART_OverrunErrorHandler^(0+128)
  4638     04F1                     l135:
  4639     04F1  0008               	return
  4640     04F2                     __end_of_EUSART_SetOverrunErrorHandler:
  4641                           
  4642                           	psect	text21
  4643     04E6                     __ptext21:	
  4644 ;; *************** function _EUSART_SetFramingErrorHandler *****************
  4645 ;; Defined at:
  4646 ;;		line 157 in file "mcc_generated_files/eusart.c"
  4647 ;; Parameters:    Size  Location     Type
  4648 ;;  interruptHan    2    0[COMMON] PTR FTN()void 
  4649 ;;		 -> EUSART_DefaultFramingErrorHandler(1), 
  4650 ;; Auto vars:     Size  Location     Type
  4651 ;;		None
  4652 ;; Return value:  Size  Location     Type
  4653 ;;                  1    wreg      void 
  4654 ;; Registers used:
  4655 ;;		wreg
  4656 ;; Tracked objects:
  4657 ;;		On entry : 0/0
  4658 ;;		On exit  : 0/0
  4659 ;;		Unchanged: 0/0
  4660 ;; Data sizes:     COMMON   BANK0   BANK1   BANK2   BANK3   BANK4
  4661 ;;      Params:         2       0       0       0       0       0
  4662 ;;      Locals:         0       0       0       0       0       0
  4663 ;;      Temps:          0       0       0       0       0       0
  4664 ;;      Totals:         2       0       0       0       0       0
  4665 ;;Total ram usage:        2 bytes
  4666 ;; Hardware stack levels used: 1
  4667 ;; This function calls:
  4668 ;;		Nothing
  4669 ;; This function is called by:
  4670 ;;		_EUSART_Initialize
  4671 ;; This function uses a non-reentrant model
  4672 ;;
  4673                           
  4674     04E6                     _EUSART_SetFramingErrorHandler:	
  4675                           ;psect for function _EUSART_SetFramingErrorHandler
  4676                           
  4677     04E6                     l2076:	
  4678                           ;incstack = 0
  4679                           ; Regs used in _EUSART_SetFramingErrorHandler: [wreg]
  4680                           
  4681                           
  4682                           ;mcc_generated_files/eusart.c: 158:     EUSART_FramingErrorHandler = interruptHandler;
  4683     04E6  0871               	movf	EUSART_SetFramingErrorHandler@interruptHandler+1,w
  4684     04E7  0021               	movlb	1	; select bank1
  4685     04E8  00DD               	movwf	(_EUSART_FramingErrorHandler+1)^(0+128)
  4686     04E9  0870               	movf	EUSART_SetFramingErrorHandler@interruptHandler,w
  4687     04EA  00DC               	movwf	_EUSART_FramingErrorHandler^(0+128)
  4688     04EB                     l132:
  4689     04EB  0008               	return
  4690     04EC                     __end_of_EUSART_SetFramingErrorHandler:
  4691                           
  4692                           	psect	text22
  4693     04E0                     __ptext22:	
  4694 ;; *************** function _EUSART_SetErrorHandler *****************
  4695 ;; Defined at:
  4696 ;;		line 165 in file "mcc_generated_files/eusart.c"
  4697 ;; Parameters:    Size  Location     Type
  4698 ;;  interruptHan    2    0[COMMON] PTR FTN()void 
  4699 ;;		 -> EUSART_DefaultErrorHandler(1), 
  4700 ;; Auto vars:     Size  Location     Type
  4701 ;;		None
  4702 ;; Return value:  Size  Location     Type
  4703 ;;                  1    wreg      void 
  4704 ;; Registers used:
  4705 ;;		wreg
  4706 ;; Tracked objects:
  4707 ;;		On entry : 0/0
  4708 ;;		On exit  : 0/0
  4709 ;;		Unchanged: 0/0
  4710 ;; Data sizes:     COMMON   BANK0   BANK1   BANK2   BANK3   BANK4
  4711 ;;      Params:         2       0       0       0       0       0
  4712 ;;      Locals:         0       0       0       0       0       0
  4713 ;;      Temps:          0       0       0       0       0       0
  4714 ;;      Totals:         2       0       0       0       0       0
  4715 ;;Total ram usage:        2 bytes
  4716 ;; Hardware stack levels used: 1
  4717 ;; This function calls:
  4718 ;;		Nothing
  4719 ;; This function is called by:
  4720 ;;		_EUSART_Initialize
  4721 ;; This function uses a non-reentrant model
  4722 ;;
  4723                           
  4724     04E0                     _EUSART_SetErrorHandler:	
  4725                           ;psect for function _EUSART_SetErrorHandler
  4726                           
  4727     04E0                     l2080:	
  4728                           ;incstack = 0
  4729                           ; Regs used in _EUSART_SetErrorHandler: [wreg]
  4730                           
  4731                           
  4732                           ;mcc_generated_files/eusart.c: 166:     EUSART_ErrorHandler = interruptHandler;
  4733     04E0  0871               	movf	EUSART_SetErrorHandler@interruptHandler+1,w
  4734     04E1  0021               	movlb	1	; select bank1
  4735     04E2  00D9               	movwf	(_EUSART_ErrorHandler+1)^(0+128)
  4736     04E3  0870               	movf	EUSART_SetErrorHandler@interruptHandler,w
  4737     04E4  00D8               	movwf	_EUSART_ErrorHandler^(0+128)
  4738     04E5                     l138:
  4739     04E5  0008               	return
  4740     04E6                     __end_of_EUSART_SetErrorHandler:
  4741     007E                     btemp	set	126	;btemp
  4742     007E                     wtemp0	set	126
  4743                           
  4744                           	psect	idloc
  4745                           
  4746                           ;Config register IDLOC0 @ 0x8000
  4747                           ;	unspecified, using default values
  4748     8000                     	org	32768
  4749     8000  3FFF               	dw	16383
  4750                           
  4751                           ;Config register IDLOC1 @ 0x8001
  4752                           ;	unspecified, using default values
  4753     8001                     	org	32769
  4754     8001  3FFF               	dw	16383
  4755                           
  4756                           ;Config register IDLOC2 @ 0x8002
  4757                           ;	unspecified, using default values
  4758     8002                     	org	32770
  4759     8002  3FFF               	dw	16383
  4760                           
  4761                           ;Config register IDLOC3 @ 0x8003
  4762                           ;	unspecified, using default values
  4763     8003                     	org	32771
  4764     8003  3FFF               	dw	16383
  4765                           
  4766                           	psect	config
  4767                           
  4768                           ;Config register CONFIG1 @ 0x8007
  4769                           ;	Oscillator Selection
  4770                           ;	FOSC = INTOSC, INTOSC oscillator: I/O function on CLKIN pin
  4771                           ;	Watchdog Timer Enable
  4772                           ;	WDTE = OFF, WDT disabled
  4773                           ;	Power-up Timer Enable
  4774                           ;	PWRTE = OFF, PWRT disabled
  4775                           ;	MCLR Pin Function Select
  4776                           ;	MCLRE = ON, MCLR/VPP pin function is MCLR
  4777                           ;	Flash Program Memory Code Protection
  4778                           ;	CP = OFF, Program memory code protection is disabled
  4779                           ;	Data Memory Code Protection
  4780                           ;	CPD = OFF, Data memory code protection is disabled
  4781                           ;	Brown-out Reset Enable
  4782                           ;	BOREN = ON, Brown-out Reset enabled
  4783                           ;	Clock Out Enable
  4784                           ;	CLKOUTEN = OFF, CLKOUT function is disabled. I/O or oscillator function on the CLKOUT 
      +                          pin
  4785                           ;	Internal/External Switchover
  4786                           ;	IESO = ON, Internal/External Switchover mode is enabled
  4787                           ;	Fail-Safe Clock Monitor Enable
  4788                           ;	FCMEN = ON, Fail-Safe Clock Monitor is enabled
  4789     8007                     	org	32775
  4790     8007  3FE4               	dw	16356
  4791                           
  4792                           ;Config register CONFIG2 @ 0x8008
  4793                           ;	Flash Memory Self-Write Protection
  4794                           ;	WRT = OFF, Write protection off
  4795                           ;	PLL Enable
  4796                           ;	PLLEN = OFF, 4x PLL disabled
  4797                           ;	Stack Overflow/Underflow Reset Enable
  4798                           ;	STVREN = ON, Stack Overflow or Underflow will cause a Reset
  4799                           ;	Brown-out Reset Voltage Selection
  4800                           ;	BORV = LO, Brown-out Reset Voltage (Vbor), low trip point selected.
  4801                           ;	Low-Voltage Programming Enable
  4802                           ;	LVP = ON, Low-voltage programming enabled
  4803     8008                     	org	32776
  4804     8008  3EFF               	dw	16127

Data Sizes:
    Strings     0
    Constant    36
    Data        9
    BSS         171
    Persistent  38
    Stack       0

Auto Spaces:
    Space          Size  Autos    Used
    COMMON           14     14      14
    BANK0            80     19      79
    BANK1            80      0      62
    BANK2            80      0      64
    BANK3            80      0       0
    BANK4            48      0       0

Pointer List with Targets:

    sp__ai_getInputField	PTR unsigned char  size(1) Largest target is 16
		 -> Y0(BANK1[16]), 

    sp__snake_getField	PTR unsigned char  size(1) Largest target is 64
		 -> field(BANK2[64]), 

    main@field	PTR unsigned char  size(1) Largest target is 64
		 -> field(BANK2[64]), 

    EUSART_SetErrorHandler@interruptHandler	PTR FTN()void  size(2) Largest target is 1
		 -> EUSART_DefaultErrorHandler(), 

    EUSART_ErrorHandler	PTR FTN()void  size(2) Largest target is 1
		 -> Absolute function(), EUSART_DefaultErrorHandler(), 

    EUSART_SetOverrunErrorHandler@interruptHandler	PTR FTN()void  size(2) Largest target is 1
		 -> EUSART_DefaultOverrunErrorHandler(), 

    EUSART_OverrunErrorHandler	PTR FTN()void  size(2) Largest target is 1
		 -> Absolute function(), EUSART_DefaultOverrunErrorHandler(), 

    EUSART_SetFramingErrorHandler@interruptHandler	PTR FTN()void  size(2) Largest target is 1
		 -> EUSART_DefaultFramingErrorHandler(), 

    EUSART_FramingErrorHandler	PTR FTN()void  size(2) Largest target is 1
		 -> Absolute function(), EUSART_DefaultFramingErrorHandler(), 


Critical Paths under _main in COMMON

    _snake_move->_rand
    _snake_initiate->_rand
    _rand->___lmul
    _sendMatrix->_txMAX7219
    _initMAX7219->_txMAX7219
    _txMAX7219->_SPI1_WriteByte
    _EUSART_Initialize->_EUSART_SetErrorHandler
    _EUSART_Initialize->_EUSART_SetFramingErrorHandler
    _EUSART_Initialize->_EUSART_SetOverrunErrorHandler

Critical Paths under _main in BANK0

    _main->_snake_move
    _snake_move->_snake_initiate
    _snake_initiate->_rand

Critical Paths under _main in BANK1

    None.

Critical Paths under _main in BANK2

    None.

Critical Paths under _main in BANK3

    None.

Critical Paths under _main in BANK4

    None.

Call Graph Tables:

 ---------------------------------------------------------------------------------
 (Depth) Function   	        Calls       Base Space   Used Autos Params    Refs
 ---------------------------------------------------------------------------------
 (0) _main                                                 8     8      0    3650
                                             11 BANK0      8     8      0
                  _SYSTEM_Initialize
                 _deactivateElevator
                        _initMAX7219
                           _ledClear
                             _ledSet
                         _sendMatrix
                     _snake_getField
              _snake_getFoodPosition
                     _snake_initiate
                         _snake_move
 ---------------------------------------------------------------------------------
 (1) _snake_move                                           5     5      0     704
                                              6 BANK0      5     5      0
                               _rand
                     _snake_initiate
 ---------------------------------------------------------------------------------
 (2) _snake_initiate                                       2     2      0     312
                                              4 BANK0      2     2      0
                               _rand
 ---------------------------------------------------------------------------------
 (3) _rand                                                 6     4      2     244
                                             12 COMMON     2     0      2
                                              0 BANK0      4     4      0
                             ___lmul
 ---------------------------------------------------------------------------------
 (4) ___lmul                                              12     4      8     244
                                              0 COMMON    12     4      8
 ---------------------------------------------------------------------------------
 (1) _snake_getFoodPosition                                0     0      0       0
 ---------------------------------------------------------------------------------
 (1) _snake_getField                                       0     0      0       0
 ---------------------------------------------------------------------------------
 (1) _sendMatrix                                           5     5      0     935
                                              3 COMMON     5     5      0
                          _txMAX7219
 ---------------------------------------------------------------------------------
 (1) _ledSet                                               4     3      1     196
                                              0 COMMON     4     3      1
 ---------------------------------------------------------------------------------
 (1) _ledClear                                             4     3      1     120
                                              0 COMMON     4     3      1
 ---------------------------------------------------------------------------------
 (1) _initMAX7219                                          2     2      0     750
                                              3 COMMON     2     2      0
                          _txMAX7219
 ---------------------------------------------------------------------------------
 (2) _txMAX7219                                            2     1      1     750
                                              1 COMMON     2     1      1
                     _SPI1_WriteByte
 ---------------------------------------------------------------------------------
 (3) _SPI1_WriteByte                                       1     1      0      22
                                              0 COMMON     1     1      0
 ---------------------------------------------------------------------------------
 (1) _deactivateElevator                                   0     0      0       0
 ---------------------------------------------------------------------------------
 (1) _SYSTEM_Initialize                                    0     0      0     294
                  _EUSART_Initialize
              _OSCILLATOR_Initialize
             _PIN_MANAGER_Initialize
                    _SPI1_Initialize
                     _WDT_Initialize
 ---------------------------------------------------------------------------------
 (2) _WDT_Initialize                                       0     0      0       0
 ---------------------------------------------------------------------------------
 (2) _SPI1_Initialize                                      0     0      0       0
 ---------------------------------------------------------------------------------
 (2) _PIN_MANAGER_Initialize                               0     0      0       0
 ---------------------------------------------------------------------------------
 (2) _OSCILLATOR_Initialize                                0     0      0       0
 ---------------------------------------------------------------------------------
 (2) _EUSART_Initialize                                    0     0      0     294
             _EUSART_SetErrorHandler
      _EUSART_SetFramingErrorHandler
      _EUSART_SetOverrunErrorHandler
 ---------------------------------------------------------------------------------
 (3) _EUSART_SetOverrunErrorHandler                        2     0      2      98
                                              0 COMMON     2     0      2
 ---------------------------------------------------------------------------------
 (3) _EUSART_SetFramingErrorHandler                        2     0      2      98
                                              0 COMMON     2     0      2
 ---------------------------------------------------------------------------------
 (3) _EUSART_SetErrorHandler                               2     0      2      98
                                              0 COMMON     2     0      2
 ---------------------------------------------------------------------------------
 Estimated maximum stack depth 4
 ---------------------------------------------------------------------------------

 Call Graph Graphs:

 _main (ROOT)
   _SYSTEM_Initialize
     _EUSART_Initialize
       _EUSART_SetErrorHandler
       _EUSART_SetFramingErrorHandler
       _EUSART_SetOverrunErrorHandler
     _OSCILLATOR_Initialize
     _PIN_MANAGER_Initialize
     _SPI1_Initialize
     _WDT_Initialize
   _deactivateElevator
   _initMAX7219
     _txMAX7219
       _SPI1_WriteByte
   _ledClear
   _ledSet
   _sendMatrix
     _txMAX7219
   _snake_getField
   _snake_getFoodPosition
   _snake_initiate
     _rand
       ___lmul
   _snake_move
     _rand
     _snake_initiate

 Address spaces:
Name               Size   Autos  Total    Cost      Usage
BIGRAM             170      0       0       0        0.0%
EEDATA             100      0       0       0        0.0%
NULL                 0      0       0       0        0.0%
CODE                 0      0       0       0        0.0%
BITCOMMON            E      0       0       1        0.0%
BITSFR0              0      0       0       1        0.0%
SFR0                 0      0       0       1        0.0%
COMMON               E      E       E       2      100.0%
BITSFR1              0      0       0       2        0.0%
SFR1                 0      0       0       2        0.0%
BITSFR2              0      0       0       3        0.0%
SFR2                 0      0       0       3        0.0%
STACK                0      0       0       3        0.0%
BITSFR3              0      0       0       4        0.0%
SFR3                 0      0       0       4        0.0%
ABS                  0      0      DB       4        0.0%
BITBANK0            50      0       0       5        0.0%
BITSFR4              0      0       0       5        0.0%
SFR4                 0      0       0       5        0.0%
BANK0               50     13      4F       6       98.8%
BITSFR5              0      0       0       6        0.0%
SFR5                 0      0       0       6        0.0%
BITBANK1            50      0       0       7        0.0%
BITSFR6              0      0       0       7        0.0%
SFR6                 0      0       0       7        0.0%
BANK1               50      0      3E       8       77.5%
BITSFR7              0      0       0       8        0.0%
SFR7                 0      0       0       8        0.0%
BITBANK2            50      0       0       9        0.0%
BITSFR8              0      0       0       9        0.0%
SFR8                 0      0       0       9        0.0%
BANK2               50      0      40      10       80.0%
BITSFR9              0      0       0      10        0.0%
SFR9                 0      0       0      10        0.0%
BITBANK3            50      0       0      11        0.0%
BITSFR10             0      0       0      11        0.0%
SFR10                0      0       0      11        0.0%
BANK3               50      0       0      12        0.0%
BITSFR11             0      0       0      12        0.0%
SFR11                0      0       0      12        0.0%
BITBANK4            30      0       0      13        0.0%
BITSFR12             0      0       0      13        0.0%
SFR12                0      0       0      13        0.0%
BANK4               30      0       0      14        0.0%
BITSFR13             0      0       0      14        0.0%
SFR13                0      0       0      14        0.0%
BITSFR14             0      0       0      15        0.0%
SFR14                0      0       0      15        0.0%
DATA                 0      0      DB      15        0.0%
BITSFR15             0      0       0      16        0.0%
SFR15                0      0       0      16        0.0%
BITSFR16             0      0       0      17        0.0%
SFR16                0      0       0      17        0.0%
BITSFR17             0      0       0      18        0.0%
SFR17                0      0       0      18        0.0%
BITSFR18             0      0       0      19        0.0%
SFR18                0      0       0      19        0.0%
BITSFR19             0      0       0      20        0.0%
SFR19                0      0       0      20        0.0%
BITSFR20             0      0       0      21        0.0%
SFR20                0      0       0      21        0.0%
BITSFR21             0      0       0      22        0.0%
SFR21                0      0       0      22        0.0%
BITSFR22             0      0       0      23        0.0%
SFR22                0      0       0      23        0.0%
BITSFR23             0      0       0      24        0.0%
SFR23                0      0       0      24        0.0%
BITSFR24             0      0       0      25        0.0%
SFR24                0      0       0      25        0.0%
BITSFR25             0      0       0      26        0.0%
SFR25                0      0       0      26        0.0%
BITSFR26             0      0       0      27        0.0%
SFR26                0      0       0      27        0.0%
BITSFR27             0      0       0      28        0.0%
SFR27                0      0       0      28        0.0%
BITSFR28             0      0       0      29        0.0%
SFR28                0      0       0      29        0.0%
BITSFR29             0      0       0      30        0.0%
SFR29                0      0       0      30        0.0%
BITSFR30             0      0       0      31        0.0%
SFR30                0      0       0      31        0.0%
BITSFR31             0      0       0      32        0.0%
SFR31                0      0       0      32        0.0%


Microchip Technology PIC Macro Assembler V2.40 build 20220703182018 
Symbol Table                                                                                   Fri Oct 07 20:23:29 2022

                           SPI1_WriteByte@byte 0070                                             l93 05AD  
                                           _Y0 00C8                                             _Y1 0034  
                                           _Y2 004A                                             _Z1 00B4  
                                           _Z2 002A                                            l132 04EB  
                                          l301 0526                                            l135 04F1  
                                          l224 04DF                                            l138 04E5  
                                          l410 04D3                                            l251 0504  
                                          l163 0571                                            l307 06DA  
                                          l333 0579                                            l254 04DA  
                                          l342 06A9                                            l335 057E  
                                          l431 04D6                                            l407 07D8  
                                          l248 0536                                            l336 0583  
                                          l345 0547                                            l338 0588  
                                          l187 0519                                            l339 058B  
                                          l355 0603                                            l348 0559  
                                          l380 05D5                                            l778 0636  
                                          _DY1 00A0                                            _DY2 0020  
                                          u720 0610                                            u800 0739  
                                          u721 060F                                            u801 0738  
                                          u810 074A                                            u811 0749  
                                          u900 07BC                                            u820 0756  
                                          u901 07BB                                            u821 0755  
                                          u750 062E                                            u910 07D1  
                                          u830 0765                                            u751 062D  
                                          u735 0619                                            u911 07D0  
                                          u831 0764                                            u760 0665  
                                          u745 0620                                            u770 05C0  
                                          u850 0777                                            u771 05BF  
                                          u851 0776                                            u780 057E  
                                          u924 053D                                            u940 05F2  
                                          u781 057D                                            u925 053C  
                                          u941 05F1                                            u765 0661  
                                          u845 076E                                            u790 0588  
                                          u934 054E                                            u950 0603  
                                          u870 0786                                            u791 0587  
                                          u935 054D                                            u951 0602  
                                          u871 0785                                            u880 07A7  
                                          u881 07A6                                            u865 077E  
                                          u890 07B5                                            u891 07B4  
               ?_EUSART_SetFramingErrorHandler 0070                                            wreg 0009  
                                 ?_initMAX7219 0070                                           l2100 05AB  
                                         l2110 0565                                           l2102 055A  
                                         l2112 056A                                           l2104 055D  
                                         l2120 0515                                           l2200 0766  
                                         l2114 056C                                           l2106 0560  
                                         l2122 0517                                           l2130 04D7  
                                         l2202 076B                                           l2124 04FE  
                                         l2116 056F                                           l2108 0562  
                                         l1228 066B                                           l2140 05B6  
                                         l2132 05AE                                           l2220 07A7  
                                         l2212 0787                                           l2126 0501  
                                         l2118 050E                                           l2150 0575  
                                         l2070 061F                                           l2062 0604  
                                         l2142 05BA                                           l2230 07BC  
                                         l2222 07AB                                           l2206 0778  
                                         l2080 04E0                                           l2128 0502  
                                         l2152 057F                                           l2160 0672  
                                         l2072 062E                                           l2064 060C  
                                         l2144 05C0                                           l2232 07BC  
                                         l2224 07B5                                           l2208 077B  
                                         l2216 078C                                           l2090 058C  
                                         l2154 0527                                           l2082 04DC  
                                         l2162 0693                                           l2250 04D4  
                                         l2066 0610                                           l2146 05CE  
                                         l2138 05B0                                           l2234 07C0  
                                         l2218 07A2                                           l2076 04E6  
                                         l2092 0595                                           l2156 051A  
                                         l2148 0573                                           l2164 069E  
                                         l2260 05D7                                           l2068 0618  
                                         l2084 0637                                           l2236 07C7  
                                         l2228 07B6                                           l2180 0739  
                                         l2172 072E                                           l2340 06B3  
                                         l2078 04EC                                           l2094 0596  
                                         l2166 06A3                                           l2158 066C  
                                         l2246 0538                                           l2270 05DF  
                                         l2262 05DD                                           l2254 05D6  
                                         l2086 0658                                           l2238 07D1  
                                         l2190 0750                                           l2182 0740  
                                         l2350 06CE                                           l2342 06B6  
                                         l2334 06AA                                           l2096 059D  
                                         l2248 0549                                           l2280 05F9  
                                         l2272 05E4                                           l2264 05DE  
                                         l2168 04D2                                           l2192 0756  
                                         l2184 0744                                           l2360 06DB  
                                         l2352 06D3                                           l2344 06BB  
                                         l2336 06AD                                           l2098 05A4  
                                         l2282 05FD                                           l2274 05E6  
                                         l2194 0759                                           l2186 074A  
                                         l2178 072F                                           l2370 06F9  
                                         l2354 06D9                                           l2346 06BC  
                                         l2338 06B0                                           l2276 05EC  
                                         l2196 075C                                           l2188 074B  
                                         l2380 0714                                           l2372 06FF  
                                         l2348 06C9                                           l2278 05F2  
                                         l2382 0719                                           l2374 0704  
                                         l2366 06DC                                           l2384 0726  
                                         l2376 070A                                           l2368 06F2  
                                         l2378 070E                                           l2756 0794  
                                         u1010 06D9                                           u1011 06D8  
                                         u1030 06F2                                           u1031 06F1  
                                         u1040 070A                                           u1041 0709  
                                         u1025 06DF                                           u1050 0714  
                                         u1051 0713                                           u1065 071C  
                                         _LATA 010C                                           _LATB 010D  
                                         u1487 06C2                                           u1497 0698  
                                         _WPUA 020C                                           _WPUB 020D  
                                         _main 06AA                                           _rand 0637  
                                         _seed 004F                                           fsr0h 0005  
                                         fsr1h 0007                                           indf0 0000  
                                         fsr0l 0004                                           indf1 0001  
                                         fsr1l 0006                                           btemp 007E  
                                         start 0002                     __end_of_deactivateElevator 0527  
                      ??_snake_getFoodPosition 0070                  __end_of_OSCILLATOR_Initialize 0505  
                                        ?_main 0070                                          ?_rand 007C  
                                        _EEADR 0191                                          _RCREG 0199  
                                        _RCSTA 019D                                          _TRISA 008C  
                                        _TRISB 008D                                          _TXREG 019A  
                                        _TXSTA 019E                            ___lmul@multiplicand 0074  
                                        _field 0120                                 _WDT_Initialize 04D7  
                                        main@d 0063                                          main@i 0064  
                                        main@j 0065                                          status 0003  
                                        wtemp0 007E                                __initialization 07D9  
                                 __end_of_main 072C                                   __end_of_rand 066C  
                                       ??_main 005E                                         ??_rand 0053  
                       __end_of_WDT_Initialize 04DB              _EUSART_DefaultFramingErrorHandler 0000  
                   _EUSART_OverrunErrorHandler 00DA                                         _EEADRH 0192  
                                       _EEADRL 0191                                         _EEDATA 0193  
                                       _EEDATH 0194                                         _EEDATL 0193  
                                       _EECON1 0195                                         _EECON2 0196  
                                       _ANSELA 018C                                         _ANSELB 018D  
                                       _BORCON 0116                                         _OSCCON 0099  
                                       _SPBRGH 019C                                         _SPBRGL 019B  
                                       _WDTCON 0097                               __end_of_ledClear 055A  
                                       ___lmul 0604                                         _choice 0046  
                                       _ledSet 0537                               _de_sigmoidValues 0800  
                                       _matrix 003E                                ?_WDT_Initialize 0070  
                            _SYSTEM_Initialize 0527                        __end_of__initialization 07FD  
                           ?_SYSTEM_Initialize 0070                                 __pcstackCOMMON 0070  
                                 __pidataBANK0 0505                            ??_SYSTEM_Initialize 0072  
                            ??_SPI1_Initialize 0070                             _spi1_configuration 0820  
                               _OPTION_REGbits 0095                          __end_of_sigmoidValues 0820  
              ??_EUSART_SetOverrunErrorHandler 0072                                snake_initiate@i 0058  
                    __end_of_SYSTEM_Initialize 0537                            snake_move@direction 005B  
                                 _headPosition 0048                                     __pbssBANK0 0020  
                                   __pbssBANK1 00A0                                     __pbssBANK2 0120  
                               _SPI1_WriteByte 04DB                            snake_move@incentive 005C  
                                   __pmaintext 06AA                                        ?___lmul 0070  
                                  sendMatrix@b 0074                                    sendMatrix@i 0077  
                                  sendMatrix@j 0076                                        ?_ledSet 0070  
                                      _BAUDCON 019F                                 ___lmul@product 0078  
                                      _APFCON0 011D                                        _APFCON1 011E  
                __end_of_snake_getFoodPosition 04D7                             _deactivateElevator 051A  
                                      _OSCTUNE 0098                                      ?_ledClear 0070  
                                      _SSP1ADD 0212                                        _SSP1BUF 0211  
                     ??_EUSART_SetErrorHandler 0072                            ?_deactivateElevator 0070  
                       __end_of_SPI1_WriteByte 04E0                               main@foodPosition 0062  
                         ??_deactivateElevator 0070                                        __ptext1 072C  
                                      __ptext2 05AE                                        __ptext3 0637  
                                      __ptext4 0604                                        __ptext5 04D4  
                                      __ptext6 04D2                                        __ptext7 05D6  
                                      __ptext8 0537                                        __ptext9 0548  
                            __end_of_txMAX7219 058C                          _OSCILLATOR_Initialize 04FE  
                                      _mapping 0066                       ??_PIN_MANAGER_Initialize 0070  
                                   ??_ledClear 0071                                        ledSet@c 0070  
                                      ledSet@l 0073                                        clrloop0 04F3  
                         end_of_initialization 07FD                                     _sendMatrix 05D6  
                     __end_of_de_sigmoidValues 0810          __end_of_EUSART_SetOverrunErrorHandler 04F2  
                _EUSART_SetOverrunErrorHandler 04EC                                ?_SPI1_WriteByte 0070  
                                      init_ram 04F8                                        initloop 04F9  
                                  snake_move@i 005D                              _EUSART_Initialize 058C  
                           ?_EUSART_Initialize 0070                                      _RCSTAbits 019D  
                                   _snake_move 072C                            ??_EUSART_Initialize 0072  
                             ??_WDT_Initialize 0070                                 txMAX7219@addr0 0072  
                                    _TRISAbits 008C                                      _TRISBbits 008D  
                    __end_of_EUSART_Initialize 05AE                                _SPI1_Initialize 050E  
                                    _TXSTAbits 019E                                   _foodPosition 0047  
                               _snake_getField 04D2                                 __end_of___lmul 0637  
                   _EUSART_DefaultErrorHandler 0000                                 __end_of_ledSet 0548  
                       ?_OSCILLATOR_Initialize 0070                                 _snake_initiate 05AE  
                          start_initialization 07D9                                  ??_initMAX7219 0073  
                                  ?_sendMatrix 0070                         __end_of_snake_getField 04D4  
               ?_EUSART_SetOverrunErrorHandler 0070                     _EUSART_FramingErrorHandler 00DC  
                                     ??___lmul 0078                                    ?_snake_move 0070  
                       _EUSART_SetErrorHandler 04E0                                       ??_ledSet 0071  
                                  __pdataBANK0 0066                         __end_of_snake_initiate 05D6  
                                    ___latbits 0001                                  __pcstackBANK0 0053  
                      __end_of_SPI1_Initialize 051A                            __end_of_initMAX7219 06AA  
                                    __pnvBANK1 00D8                                ?_snake_getField 0070  
                       _PIN_MANAGER_Initialize 055A                                ?_snake_initiate 0070  
                                 sendMatrix@nb 0075                          _snake_getFoodPosition 04D4  
                             ??_SPI1_WriteByte 0070                                      _txMAX7219 0572  
                                     _LATAbits 010C         EUSART_SetErrorHandler@interruptHandler 0070  
                                     _LATBbits 010D                                      clear_ram0 04F2  
                            _eusartRxLastError 0049                                       _PIR1bits 0011  
              ??_EUSART_SetFramingErrorHandler 0072                                      ledClear@c 0070  
                                    ledClear@l 0073                                      _snakeSize 006E  
                                     _SSP1CON1 0215                                       _SSP1CON2 0216  
            _EUSART_DefaultOverrunErrorHandler 0000                                       _SSP1STAT 0214  
                                txMAX7219@dat0 0071                                      main@field 0061  
                                  _initMAX7219 066C                                     ?_txMAX7219 0071  
                                _sigmoidValues 0810                               ?_SPI1_Initialize 0070  
                            ___lmul@multiplier 0070                                     _EECON1bits 0195  
                      ??_OSCILLATOR_Initialize 0070                            _EUSART_ErrorHandler 00D8  
                       ?_snake_getFoodPosition 0070                                       _ledClear 0548  
                                     __ptext10 066C                                       __ptext11 0572  
                                     __ptext20 04EC                                       __ptext12 04DB  
                                     __ptext21 04E6                                       __ptext13 051A  
                                     __ptext22 04E0                                       __ptext14 0527  
                                     __ptext15 04D7                                       __ptext16 050E  
                                     __ptext17 055A                                       __ptext18 04FE  
                                     __ptext19 058C                                   _SSP1CON1bits 0215  
                                 ??_sendMatrix 0073                        ?_EUSART_SetErrorHandler 0070  
EUSART_SetOverrunErrorHandler@interruptHandler 0070                                   ??_snake_move 0059  
        __end_of_EUSART_SetFramingErrorHandler 04EC                  _EUSART_SetFramingErrorHandler 04E6  
                           __end_of_sendMatrix 0604                                     _INTCONbits 000B  
                                  ??_txMAX7219 0072                               ??_snake_getField 0070  
                           __end_of_snake_move 07D9                        ?_PIN_MANAGER_Initialize 0070  
               __end_of_EUSART_SetErrorHandler 04E6                               ??_snake_initiate 0057  
EUSART_SetFramingErrorHandler@interruptHandler 0070                                  __pstringtext1 0800  
                                __pstringtext2 0810                                  __pstringtext3 0820  
               __end_of_PIN_MANAGER_Initialize 0572                                     _STATUSbits 0003  
                   __end_of_spi1_configuration 0824  
